Archive member included to satisfy reference by file (symbol)

../libapp.a(atoi.c.obj)       (--whole-archive)
../libapp.a(strtol.c.obj)     (--whole-archive)
../libapp.a(strtoul.c.obj)    (--whole-archive)
../libapp.a(strncasecmp.c.obj)
                              (--whole-archive)
../libapp.a(strstr.c.obj)     (--whole-archive)
../libapp.a(string.c.obj)     (--whole-archive)
../libapp.a(prf.c.obj)        (--whole-archive)
../libapp.a(stdout_console.c.obj)
                              (--whole-archive)
../libapp.a(sprintf.c.obj)    (--whole-archive)
../libapp.a(fprintf.c.obj)    (--whole-archive)
../libapp.a(main.c.obj)       (--whole-archive)
libzephyr.a(isr_tables.c.obj)
                              (--whole-archive)
libzephyr.a(soc.c.obj)        (--whole-archive)
libzephyr.a(exc_exit.S.obj)   (--whole-archive)
libzephyr.a(irq_init.c.obj)   (--whole-archive)
libzephyr.a(swap.S.obj)       (--whole-archive)
libzephyr.a(fault.c.obj)      (--whole-archive)
libzephyr.a(irq_manage.c.obj)
                              (--whole-archive)
libzephyr.a(thread.c.obj)     (--whole-archive)
libzephyr.a(cpu_idle.S.obj)   (--whole-archive)
libzephyr.a(fault_s.S.obj)    (--whole-archive)
libzephyr.a(fatal.c.obj)      (--whole-archive)
libzephyr.a(sys_fatal_error_handler.c.obj)
                              (--whole-archive)
libzephyr.a(thread_abort.c.obj)
                              (--whole-archive)
libzephyr.a(isr_wrapper.S.obj)
                              (--whole-archive)
libzephyr.a(irq_relay.S.obj)  (--whole-archive)
libzephyr.a(vector_table.S.obj)
                              (--whole-archive)
libzephyr.a(reset.S.obj)      (--whole-archive)
libzephyr.a(nmi_on_reset.S.obj)
                              (--whole-archive)
libzephyr.a(prep_c.c.obj)     (--whole-archive)
libzephyr.a(scb.c.obj)        (--whole-archive)
libzephyr.a(nmi.c.obj)        (--whole-archive)
libzephyr.a(exc_manage.c.obj)
                              (--whole-archive)
libzephyr.a(crc16_sw.c.obj)   (--whole-archive)
libzephyr.a(crc8_sw.c.obj)    (--whole-archive)
libzephyr.a(printk.c.obj)     (--whole-archive)
libzephyr.a(configs.c.obj)    (--whole-archive)
libzephyr.a(sys_log.c.obj)    (--whole-archive)
libzephyr.a(uart_console.c.obj)
                              (--whole-archive)
libzephyr.a(mb_display.c.obj)
                              (--whole-archive)
libzephyr.a(mb_font.c.obj)    (--whole-archive)
libzephyr.a(nrf5_power_clock.c.obj)
                              (--whole-archive)
libzephyr.a(gpio_nrf5.c.obj)  (--whole-archive)
libzephyr.a(i2c_bitbang.c.obj)
                              (--whole-archive)
libzephyr.a(i2c_gpio.c.obj)   (--whole-archive)
libzephyr.a(i2c_nrf5.c.obj)   (--whole-archive)
libzephyr.a(pwm_nrf5_sw.c.obj)
                              (--whole-archive)
libzephyr.a(temp_nrf5.c.obj)  (--whole-archive)
libzephyr.a(uart_nrf5.c.obj)  (--whole-archive)
libzephyr.a(sys_clock_init.c.obj)
                              (--whole-archive)
libzephyr.a(nrf_rtc_timer.c.obj)
                              (--whole-archive)
subsys/bluetooth/common/libsubsys__bluetooth__common.a(dummy.c.obj)
                              (--whole-archive)
subsys/bluetooth/host/libsubsys__bluetooth__host.a(uuid.c.obj)
                              (--whole-archive)
subsys/bluetooth/host/libsubsys__bluetooth__host.a(hci_core.c.obj)
                              (--whole-archive)
subsys/bluetooth/controller/libsubsys__bluetooth__controller.a(mem.c.obj)
                              (--whole-archive)
subsys/bluetooth/controller/libsubsys__bluetooth__controller.a(memq.c.obj)
                              (--whole-archive)
subsys/bluetooth/controller/libsubsys__bluetooth__controller.a(mayfly.c.obj)
                              (--whole-archive)
subsys/bluetooth/controller/libsubsys__bluetooth__controller.a(util.c.obj)
                              (--whole-archive)
subsys/bluetooth/controller/libsubsys__bluetooth__controller.a(ticker.c.obj)
                              (--whole-archive)
subsys/bluetooth/controller/libsubsys__bluetooth__controller.a(ll_addr.c.obj)
                              (--whole-archive)
subsys/bluetooth/controller/libsubsys__bluetooth__controller.a(ll_tx_pwr.c.obj)
                              (--whole-archive)
subsys/bluetooth/controller/libsubsys__bluetooth__controller.a(crypto.c.obj)
                              (--whole-archive)
subsys/bluetooth/controller/libsubsys__bluetooth__controller.a(hci_driver.c.obj)
                              (--whole-archive)
subsys/bluetooth/controller/libsubsys__bluetooth__controller.a(hci.c.obj)
                              (--whole-archive)
subsys/bluetooth/controller/libsubsys__bluetooth__controller.a(ctrl.c.obj)
                              (--whole-archive)
subsys/bluetooth/controller/libsubsys__bluetooth__controller.a(ll.c.obj)
                              (--whole-archive)
subsys/bluetooth/controller/libsubsys__bluetooth__controller.a(ll_adv.c.obj)
                              (--whole-archive)
subsys/bluetooth/controller/libsubsys__bluetooth__controller.a(ll_filter.c.obj)
                              (--whole-archive)
subsys/bluetooth/controller/libsubsys__bluetooth__controller.a(cntr.c.obj)
                              (--whole-archive)
subsys/bluetooth/controller/libsubsys__bluetooth__controller.a(rand.c.obj)
                              (--whole-archive)
subsys/bluetooth/controller/libsubsys__bluetooth__controller.a(ecb.c.obj)
                              (--whole-archive)
subsys/bluetooth/controller/libsubsys__bluetooth__controller.a(radio.c.obj)
                              (--whole-archive)
subsys/bluetooth/controller/libsubsys__bluetooth__controller.a(mayfly.c.obj)
                              (--whole-archive)
subsys/bluetooth/controller/libsubsys__bluetooth__controller.a(ticker.c.obj)
                              (--whole-archive)
subsys/net/libsubsys__net.a(buf.c.obj)
                              (--whole-archive)
kernel/libkernel.a(device.c.obj)
                              ../libapp.a(main.c.obj) (device_get_binding)
kernel/libkernel.a(errno.c.obj)
                              ../libapp.a(strtol.c.obj) (__errno)
kernel/libkernel.a(idle.c.obj)
                              libzephyr.a(irq_manage.c.obj) (_sys_power_save_idle_exit)
kernel/libkernel.a(init.c.obj)
                              libzephyr.a(prep_c.c.obj) (_bss_zero)
kernel/libkernel.a(mempool.c.obj)
                              subsys/net/libsubsys__net.a(buf.c.obj) (k_mem_pool_alloc)
kernel/libkernel.a(mutex.c.obj)
                              subsys/bluetooth/controller/libsubsys__bluetooth__controller.a(crypto.c.obj) (_impl_k_mutex_lock)
kernel/libkernel.a(queue.c.obj)
                              subsys/bluetooth/host/libsubsys__bluetooth__host.a(hci_core.c.obj) (k_queue_append)
kernel/libkernel.a(sched.c.obj)
                              kernel/libkernel.a(init.c.obj) (_add_thread_to_ready_q)
kernel/libkernel.a(sem.c.obj)
                              libzephyr.a(i2c_nrf5.c.obj) (_impl_k_sem_init)
kernel/libkernel.a(sys_clock.c.obj)
                              libzephyr.a(nrf_rtc_timer.c.obj) (_sys_clock_tick_count)
kernel/libkernel.a(system_work_q.c.obj)
                              subsys/bluetooth/host/libsubsys__bluetooth__host.a(hci_core.c.obj) (k_sys_work_q)
kernel/libkernel.a(thread.c.obj)
                              libzephyr.a(sys_fatal_error_handler.c.obj) (k_is_in_isr)
kernel/libkernel.a(work_q.c.obj)
                              kernel/libkernel.a(system_work_q.c.obj) (k_work_q_start)
kernel/libkernel.a(timer.c.obj)
                              libzephyr.a(mb_display.c.obj) (_timer_expiration_handler)
kernel/libkernel.a(atomic_c.c.obj)
                              subsys/bluetooth/host/libsubsys__bluetooth__host.a(hci_core.c.obj) (atomic_get)
kernel/libkernel.a(poll.c.obj)
                              kernel/libkernel.a(queue.c.obj) (k_poll_event_init)
/opt/zephyr-sdk/sysroots/armv5-zephyr-eabi/usr/lib/arm-zephyr-eabi/6.2.0/armv6-m/libgcc.a(_thumb1_case_sqi.o)
                              subsys/bluetooth/controller/libsubsys__bluetooth__controller.a(hci.c.obj) (__gnu_thumb1_case_sqi)
/opt/zephyr-sdk/sysroots/armv5-zephyr-eabi/usr/lib/arm-zephyr-eabi/6.2.0/armv6-m/libgcc.a(_thumb1_case_uqi.o)
                              subsys/bluetooth/controller/libsubsys__bluetooth__controller.a(hci.c.obj) (__gnu_thumb1_case_uqi)
/opt/zephyr-sdk/sysroots/armv5-zephyr-eabi/usr/lib/arm-zephyr-eabi/6.2.0/armv6-m/libgcc.a(_thumb1_case_shi.o)
                              subsys/bluetooth/controller/libsubsys__bluetooth__controller.a(hci.c.obj) (__gnu_thumb1_case_shi)
/opt/zephyr-sdk/sysroots/armv5-zephyr-eabi/usr/lib/arm-zephyr-eabi/6.2.0/armv6-m/libgcc.a(_thumb1_case_uhi.o)
                              subsys/bluetooth/controller/libsubsys__bluetooth__controller.a(ctrl.c.obj) (__gnu_thumb1_case_uhi)
/opt/zephyr-sdk/sysroots/armv5-zephyr-eabi/usr/lib/arm-zephyr-eabi/6.2.0/armv6-m/libgcc.a(_udivsi3.o)
                              ../libapp.a(strtol.c.obj) (__aeabi_uidiv)
/opt/zephyr-sdk/sysroots/armv5-zephyr-eabi/usr/lib/arm-zephyr-eabi/6.2.0/armv6-m/libgcc.a(_divsi3.o)
                              ../libapp.a(prf.c.obj) (__aeabi_idiv)
/opt/zephyr-sdk/sysroots/armv5-zephyr-eabi/usr/lib/arm-zephyr-eabi/6.2.0/armv6-m/libgcc.a(_dvmd_tls.o)
                              /opt/zephyr-sdk/sysroots/armv5-zephyr-eabi/usr/lib/arm-zephyr-eabi/6.2.0/armv6-m/libgcc.a(_udivsi3.o) (__aeabi_idiv0)
/opt/zephyr-sdk/sysroots/armv5-zephyr-eabi/usr/lib/arm-zephyr-eabi/6.2.0/armv6-m/libgcc.a(_lshrdi3.o)
                              ../libapp.a(prf.c.obj) (__aeabi_llsr)
/opt/zephyr-sdk/sysroots/armv5-zephyr-eabi/usr/lib/arm-zephyr-eabi/6.2.0/armv6-m/libgcc.a(_ashldi3.o)
                              ../libapp.a(prf.c.obj) (__aeabi_llsl)
/opt/zephyr-sdk/sysroots/armv5-zephyr-eabi/usr/lib/arm-zephyr-eabi/6.2.0/armv6-m/libgcc.a(_aeabi_uldivmod.o)
                              subsys/bluetooth/controller/libsubsys__bluetooth__controller.a(ctrl.c.obj) (__aeabi_uldivmod)
/opt/zephyr-sdk/sysroots/armv5-zephyr-eabi/usr/lib/arm-zephyr-eabi/6.2.0/armv6-m/libgcc.a(_muldi3.o)
                              ../libapp.a(prf.c.obj) (__aeabi_lmul)
/opt/zephyr-sdk/sysroots/armv5-zephyr-eabi/usr/lib/arm-zephyr-eabi/6.2.0/armv6-m/libgcc.a(_ffssi2.o)
                              libzephyr.a(gpio_nrf5.c.obj) (__ffssi2)
/opt/zephyr-sdk/sysroots/armv5-zephyr-eabi/usr/lib/arm-zephyr-eabi/6.2.0/armv6-m/libgcc.a(_popcountsi2.o)
                              libzephyr.a(gpio_nrf5.c.obj) (__popcountsi2)
/opt/zephyr-sdk/sysroots/armv5-zephyr-eabi/usr/lib/arm-zephyr-eabi/6.2.0/armv6-m/libgcc.a(_fixunsdfsi.o)
                              ../libapp.a(main.c.obj) (__aeabi_d2uiz)
/opt/zephyr-sdk/sysroots/armv5-zephyr-eabi/usr/lib/arm-zephyr-eabi/6.2.0/armv6-m/libgcc.a(_udivmoddi4.o)
                              /opt/zephyr-sdk/sysroots/armv5-zephyr-eabi/usr/lib/arm-zephyr-eabi/6.2.0/armv6-m/libgcc.a(_aeabi_uldivmod.o) (__udivmoddi4)
/opt/zephyr-sdk/sysroots/armv5-zephyr-eabi/usr/lib/arm-zephyr-eabi/6.2.0/armv6-m/libgcc.a(adddf3.o)
                              ../libapp.a(main.c.obj) (__aeabi_dadd)
/opt/zephyr-sdk/sysroots/armv5-zephyr-eabi/usr/lib/arm-zephyr-eabi/6.2.0/armv6-m/libgcc.a(divdf3.o)
                              ../libapp.a(main.c.obj) (__aeabi_ddiv)
/opt/zephyr-sdk/sysroots/armv5-zephyr-eabi/usr/lib/arm-zephyr-eabi/6.2.0/armv6-m/libgcc.a(subdf3.o)
                              /opt/zephyr-sdk/sysroots/armv5-zephyr-eabi/usr/lib/arm-zephyr-eabi/6.2.0/armv6-m/libgcc.a(_fixunsdfsi.o) (__aeabi_dsub)
/opt/zephyr-sdk/sysroots/armv5-zephyr-eabi/usr/lib/arm-zephyr-eabi/6.2.0/armv6-m/libgcc.a(fixdfsi.o)
                              /opt/zephyr-sdk/sysroots/armv5-zephyr-eabi/usr/lib/arm-zephyr-eabi/6.2.0/armv6-m/libgcc.a(_fixunsdfsi.o) (__aeabi_d2iz)
/opt/zephyr-sdk/sysroots/armv5-zephyr-eabi/usr/lib/arm-zephyr-eabi/6.2.0/armv6-m/libgcc.a(floatsidf.o)
                              ../libapp.a(main.c.obj) (__aeabi_i2d)
/opt/zephyr-sdk/sysroots/armv5-zephyr-eabi/usr/lib/arm-zephyr-eabi/6.2.0/armv6-m/libgcc.a(_arm_cmpdf2.o)
                              /opt/zephyr-sdk/sysroots/armv5-zephyr-eabi/usr/lib/arm-zephyr-eabi/6.2.0/armv6-m/libgcc.a(_fixunsdfsi.o) (__aeabi_dcmpge)
/opt/zephyr-sdk/sysroots/armv5-zephyr-eabi/usr/lib/arm-zephyr-eabi/6.2.0/armv6-m/libgcc.a(_clzsi2.o)
                              /opt/zephyr-sdk/sysroots/armv5-zephyr-eabi/usr/lib/arm-zephyr-eabi/6.2.0/armv6-m/libgcc.a(adddf3.o) (__clzsi2)
/opt/zephyr-sdk/sysroots/armv5-zephyr-eabi/usr/lib/arm-zephyr-eabi/6.2.0/armv6-m/libgcc.a(_clzdi2.o)
                              /opt/zephyr-sdk/sysroots/armv5-zephyr-eabi/usr/lib/arm-zephyr-eabi/6.2.0/armv6-m/libgcc.a(_udivmoddi4.o) (__clzdi2)
/opt/zephyr-sdk/sysroots/armv5-zephyr-eabi/usr/lib/arm-zephyr-eabi/6.2.0/armv6-m/libgcc.a(_ctzsi2.o)
                              /opt/zephyr-sdk/sysroots/armv5-zephyr-eabi/usr/lib/arm-zephyr-eabi/6.2.0/armv6-m/libgcc.a(_ffssi2.o) (__ctzsi2)
/opt/zephyr-sdk/sysroots/armv5-zephyr-eabi/usr/lib/arm-zephyr-eabi/6.2.0/armv6-m/libgcc.a(eqdf2.o)
                              /opt/zephyr-sdk/sysroots/armv5-zephyr-eabi/usr/lib/arm-zephyr-eabi/6.2.0/armv6-m/libgcc.a(_arm_cmpdf2.o) (__eqdf2)
/opt/zephyr-sdk/sysroots/armv5-zephyr-eabi/usr/lib/arm-zephyr-eabi/6.2.0/armv6-m/libgcc.a(gedf2.o)
                              /opt/zephyr-sdk/sysroots/armv5-zephyr-eabi/usr/lib/arm-zephyr-eabi/6.2.0/armv6-m/libgcc.a(_arm_cmpdf2.o) (__gedf2)
/opt/zephyr-sdk/sysroots/armv5-zephyr-eabi/usr/lib/arm-zephyr-eabi/6.2.0/armv6-m/libgcc.a(ledf2.o)
                              /opt/zephyr-sdk/sysroots/armv5-zephyr-eabi/usr/lib/arm-zephyr-eabi/6.2.0/armv6-m/libgcc.a(_arm_cmpdf2.o) (__ledf2)

Allocating common symbols
Common symbol       size              file

_sys_pm_idle_exit_notify
                    0x1               kernel/libkernel.a(idle.c.obj)
wl_anon             0x1               subsys/bluetooth/controller/libsubsys__bluetooth__controller.a(ll_filter.c.obj)
bt_storage          0x4               subsys/bluetooth/host/libsubsys__bluetooth__host.a(hci_core.c.obj)
_handling_timeouts  0x4               kernel/libkernel.a(sys_clock.c.obj)
recv_thread_data    0x60              subsys/bluetooth/controller/libsubsys__bluetooth__controller.a(hci_driver.c.obj)
_time_slice_elapsed
                    0x4               kernel/libkernel.a(sys_clock.c.obj)
_sys_clock_tick_count
                    0x8               kernel/libkernel.a(sys_clock.c.obj)
k_sys_work_q        0x70              kernel/libkernel.a(system_work_q.c.obj)
prio_recv_thread_data
                    0x60              subsys/bluetooth/controller/libsubsys__bluetooth__controller.a(hci_driver.c.obj)

Discarded input sections

 .text          0x0000000000000000        0x0 CMakeFiles/kernel_elf.dir/misc/empty_file.c.obj
 .data          0x0000000000000000        0x0 CMakeFiles/kernel_elf.dir/misc/empty_file.c.obj
 .bss           0x0000000000000000        0x0 CMakeFiles/kernel_elf.dir/misc/empty_file.c.obj
 .debug_line    0x0000000000000000        0x0 CMakeFiles/kernel_elf.dir/misc/empty_file.c.obj
 .debug_str     0x0000000000000000       0xff CMakeFiles/kernel_elf.dir/misc/empty_file.c.obj
 .comment       0x0000000000000000       0x12 CMakeFiles/kernel_elf.dir/misc/empty_file.c.obj
 .ARM.attributes
                0x0000000000000000       0x31 CMakeFiles/kernel_elf.dir/misc/empty_file.c.obj
 .text          0x0000000000000000        0x0 CMakeFiles/kernel_elf.dir/isr_tables.c.obj
 .data          0x0000000000000000        0x0 CMakeFiles/kernel_elf.dir/isr_tables.c.obj
 .bss           0x0000000000000000        0x0 CMakeFiles/kernel_elf.dir/isr_tables.c.obj
 .text          0x0000000000000000        0x0 ../libapp.a(atoi.c.obj)
 .data          0x0000000000000000        0x0 ../libapp.a(atoi.c.obj)
 .bss           0x0000000000000000        0x0 ../libapp.a(atoi.c.obj)
 .text.atoi     0x0000000000000000       0x44 ../libapp.a(atoi.c.obj)
 .debug_info    0x0000000000000000       0xe7 ../libapp.a(atoi.c.obj)
 .debug_abbrev  0x0000000000000000       0xd3 ../libapp.a(atoi.c.obj)
 .debug_loc     0x0000000000000000       0xb9 ../libapp.a(atoi.c.obj)
 .debug_aranges
                0x0000000000000000       0x20 ../libapp.a(atoi.c.obj)
 .debug_ranges  0x0000000000000000       0x10 ../libapp.a(atoi.c.obj)
 .debug_line    0x0000000000000000       0xcc ../libapp.a(atoi.c.obj)
 .debug_str     0x0000000000000000      0x13a ../libapp.a(atoi.c.obj)
 .comment       0x0000000000000000       0x12 ../libapp.a(atoi.c.obj)
 .debug_frame   0x0000000000000000       0x28 ../libapp.a(atoi.c.obj)
 .ARM.attributes
                0x0000000000000000       0x31 ../libapp.a(atoi.c.obj)
 .text          0x0000000000000000        0x0 ../libapp.a(strtol.c.obj)
 .data          0x0000000000000000        0x0 ../libapp.a(strtol.c.obj)
 .bss           0x0000000000000000        0x0 ../libapp.a(strtol.c.obj)
 .text.strtol   0x0000000000000000      0x104 ../libapp.a(strtol.c.obj)
 .debug_info    0x0000000000000000      0x1d3 ../libapp.a(strtol.c.obj)
 .debug_abbrev  0x0000000000000000       0xde ../libapp.a(strtol.c.obj)
 .debug_loc     0x0000000000000000      0x334 ../libapp.a(strtol.c.obj)
 .debug_aranges
                0x0000000000000000       0x20 ../libapp.a(strtol.c.obj)
 .debug_ranges  0x0000000000000000       0x10 ../libapp.a(strtol.c.obj)
 .debug_line    0x0000000000000000      0x15f ../libapp.a(strtol.c.obj)
 .debug_str     0x0000000000000000      0x190 ../libapp.a(strtol.c.obj)
 .comment       0x0000000000000000       0x12 ../libapp.a(strtol.c.obj)
 .debug_frame   0x0000000000000000       0x30 ../libapp.a(strtol.c.obj)
 .ARM.attributes
                0x0000000000000000       0x31 ../libapp.a(strtol.c.obj)
 .text          0x0000000000000000        0x0 ../libapp.a(strtoul.c.obj)
 .data          0x0000000000000000        0x0 ../libapp.a(strtoul.c.obj)
 .bss           0x0000000000000000        0x0 ../libapp.a(strtoul.c.obj)
 .text.strtoul  0x0000000000000000      0x110 ../libapp.a(strtoul.c.obj)
 .debug_info    0x0000000000000000      0x1cc ../libapp.a(strtoul.c.obj)
 .debug_abbrev  0x0000000000000000       0xde ../libapp.a(strtoul.c.obj)
 .debug_loc     0x0000000000000000      0x313 ../libapp.a(strtoul.c.obj)
 .debug_aranges
                0x0000000000000000       0x20 ../libapp.a(strtoul.c.obj)
 .debug_ranges  0x0000000000000000       0x10 ../libapp.a(strtoul.c.obj)
 .debug_line    0x0000000000000000      0x163 ../libapp.a(strtoul.c.obj)
 .debug_str     0x0000000000000000      0x189 ../libapp.a(strtoul.c.obj)
 .comment       0x0000000000000000       0x12 ../libapp.a(strtoul.c.obj)
 .debug_frame   0x0000000000000000       0x30 ../libapp.a(strtoul.c.obj)
 .ARM.attributes
                0x0000000000000000       0x31 ../libapp.a(strtoul.c.obj)
 .text          0x0000000000000000        0x0 ../libapp.a(strncasecmp.c.obj)
 .data          0x0000000000000000        0x0 ../libapp.a(strncasecmp.c.obj)
 .bss           0x0000000000000000        0x0 ../libapp.a(strncasecmp.c.obj)
 .text.strncasecmp
                0x0000000000000000       0x2c ../libapp.a(strncasecmp.c.obj)
 .rodata.charmap
                0x0000000000000000      0x100 ../libapp.a(strncasecmp.c.obj)
 .debug_info    0x0000000000000000       0xda ../libapp.a(strncasecmp.c.obj)
 .debug_abbrev  0x0000000000000000       0x91 ../libapp.a(strncasecmp.c.obj)
 .debug_loc     0x0000000000000000      0x16a ../libapp.a(strncasecmp.c.obj)
 .debug_aranges
                0x0000000000000000       0x20 ../libapp.a(strncasecmp.c.obj)
 .debug_ranges  0x0000000000000000       0x10 ../libapp.a(strncasecmp.c.obj)
 .debug_line    0x0000000000000000       0x81 ../libapp.a(strncasecmp.c.obj)
 .debug_str     0x0000000000000000      0x15c ../libapp.a(strncasecmp.c.obj)
 .comment       0x0000000000000000       0x12 ../libapp.a(strncasecmp.c.obj)
 .debug_frame   0x0000000000000000       0x30 ../libapp.a(strncasecmp.c.obj)
 .ARM.attributes
                0x0000000000000000       0x31 ../libapp.a(strncasecmp.c.obj)
 .text          0x0000000000000000        0x0 ../libapp.a(strstr.c.obj)
 .data          0x0000000000000000        0x0 ../libapp.a(strstr.c.obj)
 .bss           0x0000000000000000        0x0 ../libapp.a(strstr.c.obj)
 .text.strstr   0x0000000000000000       0x36 ../libapp.a(strstr.c.obj)
 .debug_info    0x0000000000000000       0xfa ../libapp.a(strstr.c.obj)
 .debug_abbrev  0x0000000000000000       0xc3 ../libapp.a(strstr.c.obj)
 .debug_loc     0x0000000000000000       0xd7 ../libapp.a(strstr.c.obj)
 .debug_aranges
                0x0000000000000000       0x20 ../libapp.a(strstr.c.obj)
 .debug_ranges  0x0000000000000000       0x10 ../libapp.a(strstr.c.obj)
 .debug_line    0x0000000000000000      0x125 ../libapp.a(strstr.c.obj)
 .debug_str     0x0000000000000000      0x149 ../libapp.a(strstr.c.obj)
 .comment       0x0000000000000000       0x12 ../libapp.a(strstr.c.obj)
 .debug_frame   0x0000000000000000       0x34 ../libapp.a(strstr.c.obj)
 .ARM.attributes
                0x0000000000000000       0x31 ../libapp.a(strstr.c.obj)
 .text          0x0000000000000000        0x0 ../libapp.a(string.c.obj)
 .data          0x0000000000000000        0x0 ../libapp.a(string.c.obj)
 .bss           0x0000000000000000        0x0 ../libapp.a(string.c.obj)
 .text.strncpy  0x0000000000000000       0x24 ../libapp.a(string.c.obj)
 .text.strrchr  0x0000000000000000       0x16 ../libapp.a(string.c.obj)
 .text.strlen   0x0000000000000000       0x12 ../libapp.a(string.c.obj)
 .text.strncmp  0x0000000000000000       0x1e ../libapp.a(string.c.obj)
 .text.strcat   0x0000000000000000       0x16 ../libapp.a(string.c.obj)
 .text.strncat  0x0000000000000000       0x2a ../libapp.a(string.c.obj)
 .text.memchr   0x0000000000000000       0x1a ../libapp.a(string.c.obj)
 .text          0x0000000000000000        0x0 ../libapp.a(prf.c.obj)
 .data          0x0000000000000000        0x0 ../libapp.a(prf.c.obj)
 .bss           0x0000000000000000        0x0 ../libapp.a(prf.c.obj)
 .text          0x0000000000000000        0x0 ../libapp.a(stdout_console.c.obj)
 .data          0x0000000000000000        0x0 ../libapp.a(stdout_console.c.obj)
 .bss           0x0000000000000000        0x0 ../libapp.a(stdout_console.c.obj)
 .text.fputs    0x0000000000000000       0x28 ../libapp.a(stdout_console.c.obj)
 .text.fwrite   0x0000000000000000       0x44 ../libapp.a(stdout_console.c.obj)
 .text.puts     0x0000000000000000       0x24 ../libapp.a(stdout_console.c.obj)
 .text          0x0000000000000000        0x0 ../libapp.a(sprintf.c.obj)
 .data          0x0000000000000000        0x0 ../libapp.a(sprintf.c.obj)
 .bss           0x0000000000000000        0x0 ../libapp.a(sprintf.c.obj)
 .text.sprintf_out
                0x0000000000000000       0x1a ../libapp.a(sprintf.c.obj)
 .text.snprintf
                0x0000000000000000       0x30 ../libapp.a(sprintf.c.obj)
 .text.sprintf  0x0000000000000000       0x30 ../libapp.a(sprintf.c.obj)
 .text.vsnprintf
                0x0000000000000000       0x24 ../libapp.a(sprintf.c.obj)
 .text.vsprintf
                0x0000000000000000       0x24 ../libapp.a(sprintf.c.obj)
 .debug_info    0x0000000000000000      0x325 ../libapp.a(sprintf.c.obj)
 .debug_abbrev  0x0000000000000000      0x13d ../libapp.a(sprintf.c.obj)
 .debug_loc     0x0000000000000000      0x1cd ../libapp.a(sprintf.c.obj)
 .debug_aranges
                0x0000000000000000       0x40 ../libapp.a(sprintf.c.obj)
 .debug_ranges  0x0000000000000000       0x30 ../libapp.a(sprintf.c.obj)
 .debug_line    0x0000000000000000      0x162 ../libapp.a(sprintf.c.obj)
 .debug_str     0x0000000000000000      0x1da ../libapp.a(sprintf.c.obj)
 .comment       0x0000000000000000       0x12 ../libapp.a(sprintf.c.obj)
 .debug_frame   0x0000000000000000       0xa0 ../libapp.a(sprintf.c.obj)
 .ARM.attributes
                0x0000000000000000       0x31 ../libapp.a(sprintf.c.obj)
 .text          0x0000000000000000        0x0 ../libapp.a(fprintf.c.obj)
 .data          0x0000000000000000        0x0 ../libapp.a(fprintf.c.obj)
 .bss           0x0000000000000000        0x0 ../libapp.a(fprintf.c.obj)
 .text.fprintf  0x0000000000000000       0x20 ../libapp.a(fprintf.c.obj)
 .text.vfprintf
                0x0000000000000000       0x14 ../libapp.a(fprintf.c.obj)
 .text.vprintf  0x0000000000000000       0x14 ../libapp.a(fprintf.c.obj)
 .text          0x0000000000000000        0x0 ../libapp.a(main.c.obj)
 .data          0x0000000000000000        0x0 ../libapp.a(main.c.obj)
 .bss           0x0000000000000000        0x0 ../libapp.a(main.c.obj)
 .text          0x0000000000000000        0x0 libzephyr.a(isr_tables.c.obj)
 .data          0x0000000000000000        0x0 libzephyr.a(isr_tables.c.obj)
 .bss           0x0000000000000000        0x0 libzephyr.a(isr_tables.c.obj)
 .text.isr_tables_syms
                0x0000000000000000        0x2 libzephyr.a(isr_tables.c.obj)
 .text          0x0000000000000000        0x0 libzephyr.a(soc.c.obj)
 .data          0x0000000000000000        0x0 libzephyr.a(soc.c.obj)
 .bss           0x0000000000000000        0x0 libzephyr.a(soc.c.obj)
 .data.SystemCoreClock
                0x0000000000000000        0x4 libzephyr.a(soc.c.obj)
 .text          0x0000000000000000        0x0 libzephyr.a(exc_exit.S.obj)
 .data          0x0000000000000000        0x0 libzephyr.a(exc_exit.S.obj)
 .bss           0x0000000000000000        0x0 libzephyr.a(exc_exit.S.obj)
 .text          0x0000000000000000        0x0 libzephyr.a(irq_init.c.obj)
 .data          0x0000000000000000        0x0 libzephyr.a(irq_init.c.obj)
 .bss           0x0000000000000000        0x0 libzephyr.a(irq_init.c.obj)
 .text          0x0000000000000000        0x0 libzephyr.a(swap.S.obj)
 .data          0x0000000000000000        0x0 libzephyr.a(swap.S.obj)
 .bss           0x0000000000000000        0x0 libzephyr.a(swap.S.obj)
 .text          0x0000000000000000        0x0 libzephyr.a(fault.c.obj)
 .data          0x0000000000000000        0x0 libzephyr.a(fault.c.obj)
 .bss           0x0000000000000000        0x0 libzephyr.a(fault.c.obj)
 .text          0x0000000000000000        0x0 libzephyr.a(irq_manage.c.obj)
 .data          0x0000000000000000        0x0 libzephyr.a(irq_manage.c.obj)
 .bss           0x0000000000000000        0x0 libzephyr.a(irq_manage.c.obj)
 .text          0x0000000000000000        0x0 libzephyr.a(thread.c.obj)
 .data          0x0000000000000000        0x0 libzephyr.a(thread.c.obj)
 .bss           0x0000000000000000        0x0 libzephyr.a(thread.c.obj)
 .text          0x0000000000000000        0x0 libzephyr.a(cpu_idle.S.obj)
 .data          0x0000000000000000        0x0 libzephyr.a(cpu_idle.S.obj)
 .bss           0x0000000000000000        0x0 libzephyr.a(cpu_idle.S.obj)
 .text._NanoIdleValGet
                0x0000000000000000        0xc libzephyr.a(cpu_idle.S.obj)
 .text._NanoIdleValClear
                0x0000000000000000        0xc libzephyr.a(cpu_idle.S.obj)
 .text.k_cpu_atomic_idle
                0x0000000000000000        0xc libzephyr.a(cpu_idle.S.obj)
 .text          0x0000000000000000        0x0 libzephyr.a(fault_s.S.obj)
 .data          0x0000000000000000        0x0 libzephyr.a(fault_s.S.obj)
 .bss           0x0000000000000000        0x0 libzephyr.a(fault_s.S.obj)
 .text          0x0000000000000000        0x0 libzephyr.a(fatal.c.obj)
 .data          0x0000000000000000        0x0 libzephyr.a(fatal.c.obj)
 .bss           0x0000000000000000        0x0 libzephyr.a(fatal.c.obj)
 .text._arch_syscall_oops
                0x0000000000000000       0x1c libzephyr.a(fatal.c.obj)
 .text          0x0000000000000000        0x0 libzephyr.a(sys_fatal_error_handler.c.obj)
 .data          0x0000000000000000        0x0 libzephyr.a(sys_fatal_error_handler.c.obj)
 .bss           0x0000000000000000        0x0 libzephyr.a(sys_fatal_error_handler.c.obj)
 .text          0x0000000000000000        0x0 libzephyr.a(thread_abort.c.obj)
 .data          0x0000000000000000        0x0 libzephyr.a(thread_abort.c.obj)
 .bss           0x0000000000000000        0x0 libzephyr.a(thread_abort.c.obj)
 .text          0x0000000000000000        0x0 libzephyr.a(isr_wrapper.S.obj)
 .data          0x0000000000000000        0x0 libzephyr.a(isr_wrapper.S.obj)
 .bss           0x0000000000000000        0x0 libzephyr.a(isr_wrapper.S.obj)
 .text          0x0000000000000000        0x0 libzephyr.a(irq_relay.S.obj)
 .data          0x0000000000000000        0x0 libzephyr.a(irq_relay.S.obj)
 .bss           0x0000000000000000        0x0 libzephyr.a(irq_relay.S.obj)
 .ARM.attributes
                0x0000000000000000       0x21 libzephyr.a(irq_relay.S.obj)
 .text          0x0000000000000000        0x0 libzephyr.a(vector_table.S.obj)
 .data          0x0000000000000000        0x0 libzephyr.a(vector_table.S.obj)
 .bss           0x0000000000000000        0x0 libzephyr.a(vector_table.S.obj)
 .text          0x0000000000000000        0x0 libzephyr.a(reset.S.obj)
 .data          0x0000000000000000        0x0 libzephyr.a(reset.S.obj)
 .bss           0x0000000000000000        0x0 libzephyr.a(reset.S.obj)
 .text          0x0000000000000000        0x0 libzephyr.a(nmi_on_reset.S.obj)
 .data          0x0000000000000000        0x0 libzephyr.a(nmi_on_reset.S.obj)
 .bss           0x0000000000000000        0x0 libzephyr.a(nmi_on_reset.S.obj)
 .text          0x0000000000000000        0x0 libzephyr.a(prep_c.c.obj)
 .data          0x0000000000000000        0x0 libzephyr.a(prep_c.c.obj)
 .bss           0x0000000000000000        0x0 libzephyr.a(prep_c.c.obj)
 .text          0x0000000000000000        0x0 libzephyr.a(scb.c.obj)
 .data          0x0000000000000000        0x0 libzephyr.a(scb.c.obj)
 .bss           0x0000000000000000        0x0 libzephyr.a(scb.c.obj)
 .text.sys_arch_reboot
                0x0000000000000000       0x1c libzephyr.a(scb.c.obj)
 .debug_info    0x0000000000000000      0x5f1 libzephyr.a(scb.c.obj)
 .debug_abbrev  0x0000000000000000      0x1cf libzephyr.a(scb.c.obj)
 .debug_aranges
                0x0000000000000000       0x20 libzephyr.a(scb.c.obj)
 .debug_ranges  0x0000000000000000       0x10 libzephyr.a(scb.c.obj)
 .debug_line    0x0000000000000000      0x22a libzephyr.a(scb.c.obj)
 .debug_str     0x0000000000000000      0x4ee libzephyr.a(scb.c.obj)
 .comment       0x0000000000000000       0x12 libzephyr.a(scb.c.obj)
 .debug_frame   0x0000000000000000       0x20 libzephyr.a(scb.c.obj)
 .ARM.attributes
                0x0000000000000000       0x31 libzephyr.a(scb.c.obj)
 .text          0x0000000000000000        0x0 libzephyr.a(nmi.c.obj)
 .data          0x0000000000000000        0x0 libzephyr.a(nmi.c.obj)
 .bss           0x0000000000000000        0x0 libzephyr.a(nmi.c.obj)
 .text          0x0000000000000000        0x0 libzephyr.a(exc_manage.c.obj)
 .data          0x0000000000000000        0x0 libzephyr.a(exc_manage.c.obj)
 .bss           0x0000000000000000        0x0 libzephyr.a(exc_manage.c.obj)
 .text.sys_exc_esf_dump
                0x0000000000000000       0x68 libzephyr.a(exc_manage.c.obj)
 .rodata.sys_exc_esf_dump.str1.1
                0x0000000000000000       0x65 libzephyr.a(exc_manage.c.obj)
 .debug_info    0x0000000000000000      0x69d libzephyr.a(exc_manage.c.obj)
 .debug_abbrev  0x0000000000000000      0x1b6 libzephyr.a(exc_manage.c.obj)
 .debug_loc     0x0000000000000000       0x2c libzephyr.a(exc_manage.c.obj)
 .debug_aranges
                0x0000000000000000       0x20 libzephyr.a(exc_manage.c.obj)
 .debug_ranges  0x0000000000000000       0x10 libzephyr.a(exc_manage.c.obj)
 .debug_line    0x0000000000000000      0x1a1 libzephyr.a(exc_manage.c.obj)
 .debug_str     0x0000000000000000      0x444 libzephyr.a(exc_manage.c.obj)
 .comment       0x0000000000000000       0x12 libzephyr.a(exc_manage.c.obj)
 .debug_frame   0x0000000000000000       0x28 libzephyr.a(exc_manage.c.obj)
 .ARM.attributes
                0x0000000000000000       0x31 libzephyr.a(exc_manage.c.obj)
 .text          0x0000000000000000        0x0 libzephyr.a(crc16_sw.c.obj)
 .data          0x0000000000000000        0x0 libzephyr.a(crc16_sw.c.obj)
 .bss           0x0000000000000000        0x0 libzephyr.a(crc16_sw.c.obj)
 .text.crc16    0x0000000000000000       0x48 libzephyr.a(crc16_sw.c.obj)
 .text.crc16_ccitt
                0x0000000000000000       0x28 libzephyr.a(crc16_sw.c.obj)
 .text.crc16_itu_t
                0x0000000000000000       0x32 libzephyr.a(crc16_sw.c.obj)
 .debug_info    0x0000000000000000      0x1ef libzephyr.a(crc16_sw.c.obj)
 .debug_abbrev  0x0000000000000000       0xd3 libzephyr.a(crc16_sw.c.obj)
 .debug_loc     0x0000000000000000      0x29c libzephyr.a(crc16_sw.c.obj)
 .debug_aranges
                0x0000000000000000       0x30 libzephyr.a(crc16_sw.c.obj)
 .debug_ranges  0x0000000000000000       0x20 libzephyr.a(crc16_sw.c.obj)
 .debug_line    0x0000000000000000      0x172 libzephyr.a(crc16_sw.c.obj)
 .debug_str     0x0000000000000000      0x1cc libzephyr.a(crc16_sw.c.obj)
 .comment       0x0000000000000000       0x12 libzephyr.a(crc16_sw.c.obj)
 .debug_frame   0x0000000000000000       0x68 libzephyr.a(crc16_sw.c.obj)
 .ARM.attributes
                0x0000000000000000       0x31 libzephyr.a(crc16_sw.c.obj)
 .text          0x0000000000000000        0x0 libzephyr.a(crc8_sw.c.obj)
 .data          0x0000000000000000        0x0 libzephyr.a(crc8_sw.c.obj)
 .bss           0x0000000000000000        0x0 libzephyr.a(crc8_sw.c.obj)
 .text.crc8_ccitt
                0x0000000000000000       0x30 libzephyr.a(crc8_sw.c.obj)
 .rodata.crc8_ccitt_small_table
                0x0000000000000000       0x10 libzephyr.a(crc8_sw.c.obj)
 .debug_info    0x0000000000000000       0xf0 libzephyr.a(crc8_sw.c.obj)
 .debug_abbrev  0x0000000000000000       0xbe libzephyr.a(crc8_sw.c.obj)
 .debug_loc     0x0000000000000000       0x69 libzephyr.a(crc8_sw.c.obj)
 .debug_aranges
                0x0000000000000000       0x20 libzephyr.a(crc8_sw.c.obj)
 .debug_ranges  0x0000000000000000       0x10 libzephyr.a(crc8_sw.c.obj)
 .debug_line    0x0000000000000000       0x9b libzephyr.a(crc8_sw.c.obj)
 .debug_str     0x0000000000000000      0x198 libzephyr.a(crc8_sw.c.obj)
 .comment       0x0000000000000000       0x12 libzephyr.a(crc8_sw.c.obj)
 .debug_frame   0x0000000000000000       0x2c libzephyr.a(crc8_sw.c.obj)
 .ARM.attributes
                0x0000000000000000       0x31 libzephyr.a(crc8_sw.c.obj)
 .text          0x0000000000000000        0x0 libzephyr.a(printk.c.obj)
 .data          0x0000000000000000        0x0 libzephyr.a(printk.c.obj)
 .bss           0x0000000000000000        0x0 libzephyr.a(printk.c.obj)
 .text.__printk_get_hook
                0x0000000000000000        0xc libzephyr.a(printk.c.obj)
 .text._impl_k_str_out
                0x0000000000000000       0x1c libzephyr.a(printk.c.obj)
 .text          0x0000000000000000        0x0 libzephyr.a(configs.c.obj)
 .data          0x0000000000000000        0x0 libzephyr.a(configs.c.obj)
 .bss           0x0000000000000000        0x0 libzephyr.a(configs.c.obj)
 .text          0x0000000000000000        0x0 libzephyr.a(sys_log.c.obj)
 .data          0x0000000000000000        0x0 libzephyr.a(sys_log.c.obj)
 .bss           0x0000000000000000        0x0 libzephyr.a(sys_log.c.obj)
 .text.syslog_hook_default
                0x0000000000000000        0x6 libzephyr.a(sys_log.c.obj)
 .text.syslog_hook_install
                0x0000000000000000        0xc libzephyr.a(sys_log.c.obj)
 .data.syslog_hook
                0x0000000000000000        0x4 libzephyr.a(sys_log.c.obj)
 .debug_info    0x0000000000000000       0xde libzephyr.a(sys_log.c.obj)
 .debug_abbrev  0x0000000000000000       0xbd libzephyr.a(sys_log.c.obj)
 .debug_aranges
                0x0000000000000000       0x28 libzephyr.a(sys_log.c.obj)
 .debug_ranges  0x0000000000000000       0x18 libzephyr.a(sys_log.c.obj)
 .debug_line    0x0000000000000000       0xa1 libzephyr.a(sys_log.c.obj)
 .debug_str     0x0000000000000000      0x1e9 libzephyr.a(sys_log.c.obj)
 .comment       0x0000000000000000       0x12 libzephyr.a(sys_log.c.obj)
 .debug_frame   0x0000000000000000       0x34 libzephyr.a(sys_log.c.obj)
 .ARM.attributes
                0x0000000000000000       0x31 libzephyr.a(sys_log.c.obj)
 .text          0x0000000000000000        0x0 libzephyr.a(uart_console.c.obj)
 .data          0x0000000000000000        0x0 libzephyr.a(uart_console.c.obj)
 .bss           0x0000000000000000        0x0 libzephyr.a(uart_console.c.obj)
 .text          0x0000000000000000        0x0 libzephyr.a(mb_display.c.obj)
 .data          0x0000000000000000        0x0 libzephyr.a(mb_display.c.obj)
 .bss           0x0000000000000000        0x0 libzephyr.a(mb_display.c.obj)
 .text.mb_display_image
                0x0000000000000000       0x84 libzephyr.a(mb_display.c.obj)
 .text.mb_display_stop
                0x0000000000000000        0x8 libzephyr.a(mb_display.c.obj)
 .text          0x0000000000000000        0x0 libzephyr.a(mb_font.c.obj)
 .data          0x0000000000000000        0x0 libzephyr.a(mb_font.c.obj)
 .bss           0x0000000000000000        0x0 libzephyr.a(mb_font.c.obj)
 .text          0x0000000000000000        0x0 libzephyr.a(nrf5_power_clock.c.obj)
 .data          0x0000000000000000        0x0 libzephyr.a(nrf5_power_clock.c.obj)
 .bss           0x0000000000000000        0x0 libzephyr.a(nrf5_power_clock.c.obj)
 .text          0x0000000000000000        0x0 libzephyr.a(gpio_nrf5.c.obj)
 .data          0x0000000000000000        0x0 libzephyr.a(gpio_nrf5.c.obj)
 .bss           0x0000000000000000        0x0 libzephyr.a(gpio_nrf5.c.obj)
 .text.nrf_gpiote_interrupt_enable
                0x0000000000000000       0x10 libzephyr.a(gpio_nrf5.c.obj)
 .text.nrf_gpiote_interrupt_disable
                0x0000000000000000       0x10 libzephyr.a(gpio_nrf5.c.obj)
 .text.nrf_gpiote_clear_port_event
                0x0000000000000000       0x10 libzephyr.a(gpio_nrf5.c.obj)
 .text          0x0000000000000000        0x0 libzephyr.a(i2c_bitbang.c.obj)
 .data          0x0000000000000000        0x0 libzephyr.a(i2c_bitbang.c.obj)
 .bss           0x0000000000000000        0x0 libzephyr.a(i2c_bitbang.c.obj)
 .text          0x0000000000000000        0x0 libzephyr.a(i2c_gpio.c.obj)
 .data          0x0000000000000000        0x0 libzephyr.a(i2c_gpio.c.obj)
 .bss           0x0000000000000000        0x0 libzephyr.a(i2c_gpio.c.obj)
 .text          0x0000000000000000        0x0 libzephyr.a(i2c_nrf5.c.obj)
 .data          0x0000000000000000        0x0 libzephyr.a(i2c_nrf5.c.obj)
 .bss           0x0000000000000000        0x0 libzephyr.a(i2c_nrf5.c.obj)
 .text          0x0000000000000000        0x0 libzephyr.a(pwm_nrf5_sw.c.obj)
 .data          0x0000000000000000        0x0 libzephyr.a(pwm_nrf5_sw.c.obj)
 .bss           0x0000000000000000        0x0 libzephyr.a(pwm_nrf5_sw.c.obj)
 .text          0x0000000000000000        0x0 libzephyr.a(temp_nrf5.c.obj)
 .data          0x0000000000000000        0x0 libzephyr.a(temp_nrf5.c.obj)
 .bss           0x0000000000000000        0x0 libzephyr.a(temp_nrf5.c.obj)
 .text          0x0000000000000000        0x0 libzephyr.a(uart_nrf5.c.obj)
 .data          0x0000000000000000        0x0 libzephyr.a(uart_nrf5.c.obj)
 .bss           0x0000000000000000        0x0 libzephyr.a(uart_nrf5.c.obj)
 .text          0x0000000000000000        0x0 libzephyr.a(sys_clock_init.c.obj)
 .data          0x0000000000000000        0x0 libzephyr.a(sys_clock_init.c.obj)
 .bss           0x0000000000000000        0x0 libzephyr.a(sys_clock_init.c.obj)
 .text          0x0000000000000000        0x0 libzephyr.a(nrf_rtc_timer.c.obj)
 .data          0x0000000000000000        0x0 libzephyr.a(nrf_rtc_timer.c.obj)
 .bss           0x0000000000000000        0x0 libzephyr.a(nrf_rtc_timer.c.obj)
 .text          0x0000000000000000        0x0 subsys/bluetooth/common/libsubsys__bluetooth__common.a(dummy.c.obj)
 .data          0x0000000000000000        0x0 subsys/bluetooth/common/libsubsys__bluetooth__common.a(dummy.c.obj)
 .bss           0x0000000000000000        0x0 subsys/bluetooth/common/libsubsys__bluetooth__common.a(dummy.c.obj)
 .debug_info    0x0000000000000000      0x48f subsys/bluetooth/common/libsubsys__bluetooth__common.a(dummy.c.obj)
 .debug_abbrev  0x0000000000000000      0x147 subsys/bluetooth/common/libsubsys__bluetooth__common.a(dummy.c.obj)
 .debug_aranges
                0x0000000000000000       0x18 subsys/bluetooth/common/libsubsys__bluetooth__common.a(dummy.c.obj)
 .debug_line    0x0000000000000000      0x108 subsys/bluetooth/common/libsubsys__bluetooth__common.a(dummy.c.obj)
 .debug_str     0x0000000000000000      0x42c subsys/bluetooth/common/libsubsys__bluetooth__common.a(dummy.c.obj)
 .comment       0x0000000000000000       0x12 subsys/bluetooth/common/libsubsys__bluetooth__common.a(dummy.c.obj)
 .ARM.attributes
                0x0000000000000000       0x31 subsys/bluetooth/common/libsubsys__bluetooth__common.a(dummy.c.obj)
 .text          0x0000000000000000        0x0 subsys/bluetooth/host/libsubsys__bluetooth__host.a(uuid.c.obj)
 .data          0x0000000000000000        0x0 subsys/bluetooth/host/libsubsys__bluetooth__host.a(uuid.c.obj)
 .bss           0x0000000000000000        0x0 subsys/bluetooth/host/libsubsys__bluetooth__host.a(uuid.c.obj)
 .text.uuid_to_uuid128
                0x0000000000000000       0x58 subsys/bluetooth/host/libsubsys__bluetooth__host.a(uuid.c.obj)
 .text.bt_uuid_cmp
                0x0000000000000000       0x56 subsys/bluetooth/host/libsubsys__bluetooth__host.a(uuid.c.obj)
 .rodata.uuid128_base
                0x0000000000000000       0x11 subsys/bluetooth/host/libsubsys__bluetooth__host.a(uuid.c.obj)
 .debug_info    0x0000000000000000      0x40e subsys/bluetooth/host/libsubsys__bluetooth__host.a(uuid.c.obj)
 .debug_abbrev  0x0000000000000000      0x1d3 subsys/bluetooth/host/libsubsys__bluetooth__host.a(uuid.c.obj)
 .debug_loc     0x0000000000000000      0x2ad subsys/bluetooth/host/libsubsys__bluetooth__host.a(uuid.c.obj)
 .debug_aranges
                0x0000000000000000       0x28 subsys/bluetooth/host/libsubsys__bluetooth__host.a(uuid.c.obj)
 .debug_ranges  0x0000000000000000       0x48 subsys/bluetooth/host/libsubsys__bluetooth__host.a(uuid.c.obj)
 .debug_line    0x0000000000000000      0x180 subsys/bluetooth/host/libsubsys__bluetooth__host.a(uuid.c.obj)
 .debug_str     0x0000000000000000      0x2ad subsys/bluetooth/host/libsubsys__bluetooth__host.a(uuid.c.obj)
 .comment       0x0000000000000000       0x12 subsys/bluetooth/host/libsubsys__bluetooth__host.a(uuid.c.obj)
 .debug_frame   0x0000000000000000       0x48 subsys/bluetooth/host/libsubsys__bluetooth__host.a(uuid.c.obj)
 .ARM.attributes
                0x0000000000000000       0x31 subsys/bluetooth/host/libsubsys__bluetooth__host.a(uuid.c.obj)
 .text          0x0000000000000000        0x0 subsys/bluetooth/host/libsubsys__bluetooth__host.a(hci_core.c.obj)
 .data          0x0000000000000000        0x0 subsys/bluetooth/host/libsubsys__bluetooth__host.a(hci_core.c.obj)
 .bss           0x0000000000000000        0x0 subsys/bluetooth/host/libsubsys__bluetooth__host.a(hci_core.c.obj)
 .text.le_set_private_addr
                0x0000000000000000       0x22 subsys/bluetooth/host/libsubsys__bluetooth__host.a(hci_core.c.obj)
 .text.set_ad   0x0000000000000000       0x82 subsys/bluetooth/host/libsubsys__bluetooth__host.a(hci_core.c.obj)
 .text.bt_addr_le_create_nrpa
                0x0000000000000000       0x1e subsys/bluetooth/host/libsubsys__bluetooth__host.a(hci_core.c.obj)
 .text.bt_send  0x0000000000000000       0x14 subsys/bluetooth/host/libsubsys__bluetooth__host.a(hci_core.c.obj)
 .text.bt_hci_cmd_send
                0x0000000000000000       0x48 subsys/bluetooth/host/libsubsys__bluetooth__host.a(hci_core.c.obj)
 .text.hci_tx_thread
                0x0000000000000000       0xa8 subsys/bluetooth/host/libsubsys__bluetooth__host.a(hci_core.c.obj)
 .text.bt_enable
                0x0000000000000000       0xac subsys/bluetooth/host/libsubsys__bluetooth__host.a(hci_core.c.obj)
 .text.bt_addr_le_is_bonded
                0x0000000000000000        0x4 subsys/bluetooth/host/libsubsys__bluetooth__host.a(hci_core.c.obj)
 .text.bt_le_adv_start
                0x0000000000000000      0x154 subsys/bluetooth/host/libsubsys__bluetooth__host.a(hci_core.c.obj)
 .text.bt_le_adv_stop
                0x0000000000000000       0x74 subsys/bluetooth/host/libsubsys__bluetooth__host.a(hci_core.c.obj)
 .text.bt_le_scan_start
                0x0000000000000000      0x144 subsys/bluetooth/host/libsubsys__bluetooth__host.a(hci_core.c.obj)
 .text.bt_le_scan_stop
                0x0000000000000000       0x30 subsys/bluetooth/host/libsubsys__bluetooth__host.a(hci_core.c.obj)
 .text.bt_storage_register
                0x0000000000000000        0xc subsys/bluetooth/host/libsubsys__bluetooth__host.a(hci_core.c.obj)
 .text.bt_storage_clear
                0x0000000000000000       0x18 subsys/bluetooth/host/libsubsys__bluetooth__host.a(hci_core.c.obj)
 .text.bt_hci_get_cmd_opcode
                0x0000000000000000       0x14 subsys/bluetooth/host/libsubsys__bluetooth__host.a(hci_core.c.obj)
 .text.bt_pub_key_gen
                0x0000000000000000       0x80 subsys/bluetooth/host/libsubsys__bluetooth__host.a(hci_core.c.obj)
 .text.bt_pub_key_get
                0x0000000000000000       0x1c subsys/bluetooth/host/libsubsys__bluetooth__host.a(hci_core.c.obj)
 .text.bt_dh_key_gen
                0x0000000000000000       0x6c subsys/bluetooth/host/libsubsys__bluetooth__host.a(hci_core.c.obj)
 .text.bt_le_oob_get_local
                0x0000000000000000       0x14 subsys/bluetooth/host/libsubsys__bluetooth__host.a(hci_core.c.obj)
 .bss.tx_thread_data
                0x0000000000000000       0x60 subsys/bluetooth/host/libsubsys__bluetooth__host.a(hci_core.c.obj)
 .data.events.9229
                0x0000000000000000       0x14 subsys/bluetooth/host/libsubsys__bluetooth__host.a(hci_core.c.obj)
 .noinit."/home/israel/zephyr/subsys/bluetooth/host/hci_core.c".0
                0x0000000000000000      0x280 subsys/bluetooth/host/libsubsys__bluetooth__host.a(hci_core.c.obj)
 .text          0x0000000000000000        0x0 subsys/bluetooth/controller/libsubsys__bluetooth__controller.a(mem.c.obj)
 .data          0x0000000000000000        0x0 subsys/bluetooth/controller/libsubsys__bluetooth__controller.a(mem.c.obj)
 .bss           0x0000000000000000        0x0 subsys/bluetooth/controller/libsubsys__bluetooth__controller.a(mem.c.obj)
 .text.mem_free_count_get
                0x0000000000000000       0x10 subsys/bluetooth/controller/libsubsys__bluetooth__controller.a(mem.c.obj)
 .text.mem_nz   0x0000000000000000       0x18 subsys/bluetooth/controller/libsubsys__bluetooth__controller.a(mem.c.obj)
 .text.mem_ut   0x0000000000000000       0xa8 subsys/bluetooth/controller/libsubsys__bluetooth__controller.a(mem.c.obj)
 .text          0x0000000000000000        0x0 subsys/bluetooth/controller/libsubsys__bluetooth__controller.a(memq.c.obj)
 .data          0x0000000000000000        0x0 subsys/bluetooth/controller/libsubsys__bluetooth__controller.a(memq.c.obj)
 .bss           0x0000000000000000        0x0 subsys/bluetooth/controller/libsubsys__bluetooth__controller.a(memq.c.obj)
 .text          0x0000000000000000        0x0 subsys/bluetooth/controller/libsubsys__bluetooth__controller.a(mayfly.c.obj)
 .data          0x0000000000000000        0x0 subsys/bluetooth/controller/libsubsys__bluetooth__controller.a(mayfly.c.obj)
 .bss           0x0000000000000000        0x0 subsys/bluetooth/controller/libsubsys__bluetooth__controller.a(mayfly.c.obj)
 .text          0x0000000000000000        0x0 subsys/bluetooth/controller/libsubsys__bluetooth__controller.a(util.c.obj)
 .data          0x0000000000000000        0x0 subsys/bluetooth/controller/libsubsys__bluetooth__controller.a(util.c.obj)
 .bss           0x0000000000000000        0x0 subsys/bluetooth/controller/libsubsys__bluetooth__controller.a(util.c.obj)
 .text          0x0000000000000000        0x0 subsys/bluetooth/controller/libsubsys__bluetooth__controller.a(ticker.c.obj)
 .data          0x0000000000000000        0x0 subsys/bluetooth/controller/libsubsys__bluetooth__controller.a(ticker.c.obj)
 .bss           0x0000000000000000        0x0 subsys/bluetooth/controller/libsubsys__bluetooth__controller.a(ticker.c.obj)
 .text.ticker_is_initialized
                0x0000000000000000       0x18 subsys/bluetooth/controller/libsubsys__bluetooth__controller.a(ticker.c.obj)
 .text          0x0000000000000000        0x0 subsys/bluetooth/controller/libsubsys__bluetooth__controller.a(ll_addr.c.obj)
 .data          0x0000000000000000        0x0 subsys/bluetooth/controller/libsubsys__bluetooth__controller.a(ll_addr.c.obj)
 .bss           0x0000000000000000        0x0 subsys/bluetooth/controller/libsubsys__bluetooth__controller.a(ll_addr.c.obj)
 .text          0x0000000000000000        0x0 subsys/bluetooth/controller/libsubsys__bluetooth__controller.a(ll_tx_pwr.c.obj)
 .data          0x0000000000000000        0x0 subsys/bluetooth/controller/libsubsys__bluetooth__controller.a(ll_tx_pwr.c.obj)
 .bss           0x0000000000000000        0x0 subsys/bluetooth/controller/libsubsys__bluetooth__controller.a(ll_tx_pwr.c.obj)
 .text.ll_tx_pwr_lvl_get
                0x0000000000000000        0x6 subsys/bluetooth/controller/libsubsys__bluetooth__controller.a(ll_tx_pwr.c.obj)
 .text          0x0000000000000000        0x0 subsys/bluetooth/controller/libsubsys__bluetooth__controller.a(crypto.c.obj)
 .data          0x0000000000000000        0x0 subsys/bluetooth/controller/libsubsys__bluetooth__controller.a(crypto.c.obj)
 .bss           0x0000000000000000        0x0 subsys/bluetooth/controller/libsubsys__bluetooth__controller.a(crypto.c.obj)
 .text.bt_encrypt_le
                0x0000000000000000        0xc subsys/bluetooth/controller/libsubsys__bluetooth__controller.a(crypto.c.obj)
 .text.bt_encrypt_be
                0x0000000000000000        0xa subsys/bluetooth/controller/libsubsys__bluetooth__controller.a(crypto.c.obj)
 .text          0x0000000000000000        0x0 subsys/bluetooth/controller/libsubsys__bluetooth__controller.a(hci_driver.c.obj)
 .data          0x0000000000000000        0x0 subsys/bluetooth/controller/libsubsys__bluetooth__controller.a(hci_driver.c.obj)
 .bss           0x0000000000000000        0x0 subsys/bluetooth/controller/libsubsys__bluetooth__controller.a(hci_driver.c.obj)
 .text          0x0000000000000000        0x0 subsys/bluetooth/controller/libsubsys__bluetooth__controller.a(hci.c.obj)
 .data          0x0000000000000000        0x0 subsys/bluetooth/controller/libsubsys__bluetooth__controller.a(hci.c.obj)
 .bss           0x0000000000000000        0x0 subsys/bluetooth/controller/libsubsys__bluetooth__controller.a(hci.c.obj)
 .text.hci_acl_handle
                0x0000000000000000       0xbc subsys/bluetooth/controller/libsubsys__bluetooth__controller.a(hci.c.obj)
 .text.hci_num_cmplt_encode
                0x0000000000000000       0x30 subsys/bluetooth/controller/libsubsys__bluetooth__controller.a(hci.c.obj)
 .text          0x0000000000000000        0x0 subsys/bluetooth/controller/libsubsys__bluetooth__controller.a(ctrl.c.obj)
 .data          0x0000000000000000        0x0 subsys/bluetooth/controller/libsubsys__bluetooth__controller.a(ctrl.c.obj)
 .bss           0x0000000000000000        0x0 subsys/bluetooth/controller/libsubsys__bluetooth__controller.a(ctrl.c.obj)
 .text.mayfly_sched_after_mstr_free_offset_get
                0x0000000000000000       0x20 subsys/bluetooth/controller/libsubsys__bluetooth__controller.a(ctrl.c.obj)
 .text.event_stop
                0x0000000000000000       0x20 subsys/bluetooth/controller/libsubsys__bluetooth__controller.a(ctrl.c.obj)
 .text.ticker_op_latency_cancelled
                0x0000000000000000       0x16 subsys/bluetooth/controller/libsubsys__bluetooth__controller.a(ctrl.c.obj)
 .text.event_scan_prepare
                0x0000000000000000       0x80 subsys/bluetooth/controller/libsubsys__bluetooth__controller.a(ctrl.c.obj)
 .text.event_scan
                0x0000000000000000      0x138 subsys/bluetooth/controller/libsubsys__bluetooth__controller.a(ctrl.c.obj)
 .text.radio_hf_clock_get
                0x0000000000000000        0xc subsys/bluetooth/controller/libsubsys__bluetooth__controller.a(ctrl.c.obj)
 .text.ll_radio_state_abort
                0x0000000000000000        0xa subsys/bluetooth/controller/libsubsys__bluetooth__controller.a(ctrl.c.obj)
 .text.ll_radio_state_is_idle
                0x0000000000000000        0x8 subsys/bluetooth/controller/libsubsys__bluetooth__controller.a(ctrl.c.obj)
 .text.radio_ticks_active_to_start_set
                0x0000000000000000        0xc subsys/bluetooth/controller/libsubsys__bluetooth__controller.a(ctrl.c.obj)
 .text.radio_connect_enable
                0x0000000000000000      0x2d8 subsys/bluetooth/controller/libsubsys__bluetooth__controller.a(ctrl.c.obj)
 .text.ll_conn_update
                0x0000000000000000       0x7c subsys/bluetooth/controller/libsubsys__bluetooth__controller.a(ctrl.c.obj)
 .text.ll_chm_update
                0x0000000000000000       0x78 subsys/bluetooth/controller/libsubsys__bluetooth__controller.a(ctrl.c.obj)
 .text.ll_chm_get
                0x0000000000000000       0x28 subsys/bluetooth/controller/libsubsys__bluetooth__controller.a(ctrl.c.obj)
 .text.ll_feature_req_send
                0x0000000000000000       0x2c subsys/bluetooth/controller/libsubsys__bluetooth__controller.a(ctrl.c.obj)
 .text.ll_version_ind_send
                0x0000000000000000       0x2c subsys/bluetooth/controller/libsubsys__bluetooth__controller.a(ctrl.c.obj)
 .text.ll_terminate_ind_send
                0x0000000000000000       0x2c subsys/bluetooth/controller/libsubsys__bluetooth__controller.a(ctrl.c.obj)
 .text.radio_rx_fc_get
                0x0000000000000000       0x30 subsys/bluetooth/controller/libsubsys__bluetooth__controller.a(ctrl.c.obj)
 .text.ll_tx_mem_acquire
                0x0000000000000000       0x14 subsys/bluetooth/controller/libsubsys__bluetooth__controller.a(ctrl.c.obj)
 .text.ll_tx_mem_release
                0x0000000000000000       0x14 subsys/bluetooth/controller/libsubsys__bluetooth__controller.a(ctrl.c.obj)
 .text.ll_tx_mem_enqueue
                0x0000000000000000       0xb8 subsys/bluetooth/controller/libsubsys__bluetooth__controller.a(ctrl.c.obj)
 .text.radio_scan_enable
                0x0000000000000000      0x1c4 subsys/bluetooth/controller/libsubsys__bluetooth__controller.a(ctrl.c.obj)
 .text.radio_scan_disable
                0x0000000000000000       0x60 subsys/bluetooth/controller/libsubsys__bluetooth__controller.a(ctrl.c.obj)
 .text.ll_connect_disable
                0x0000000000000000       0x18 subsys/bluetooth/controller/libsubsys__bluetooth__controller.a(ctrl.c.obj)
 .bss.s_link.10248
                0x0000000000000000        0x8 subsys/bluetooth/controller/libsubsys__bluetooth__controller.a(ctrl.c.obj)
 .data.s_mfy_sched_after_mstr_free_offset_get.10249
                0x0000000000000000       0x10 subsys/bluetooth/controller/libsubsys__bluetooth__controller.a(ctrl.c.obj)
 .text          0x0000000000000000        0x0 subsys/bluetooth/controller/libsubsys__bluetooth__controller.a(ll.c.obj)
 .data          0x0000000000000000        0x0 subsys/bluetooth/controller/libsubsys__bluetooth__controller.a(ll.c.obj)
 .bss           0x0000000000000000        0x0 subsys/bluetooth/controller/libsubsys__bluetooth__controller.a(ll.c.obj)
 .text.ll_timeslice_ticker_id_get
                0x0000000000000000        0xa subsys/bluetooth/controller/libsubsys__bluetooth__controller.a(ll.c.obj)
 .text          0x0000000000000000        0x0 subsys/bluetooth/controller/libsubsys__bluetooth__controller.a(ll_adv.c.obj)
 .data          0x0000000000000000        0x0 subsys/bluetooth/controller/libsubsys__bluetooth__controller.a(ll_adv.c.obj)
 .bss           0x0000000000000000        0x0 subsys/bluetooth/controller/libsubsys__bluetooth__controller.a(ll_adv.c.obj)
 .text.ll_adv_set_get
                0x0000000000000000        0x8 subsys/bluetooth/controller/libsubsys__bluetooth__controller.a(ll_adv.c.obj)
 .text          0x0000000000000000        0x0 subsys/bluetooth/controller/libsubsys__bluetooth__controller.a(ll_filter.c.obj)
 .data          0x0000000000000000        0x0 subsys/bluetooth/controller/libsubsys__bluetooth__controller.a(ll_filter.c.obj)
 .bss           0x0000000000000000        0x0 subsys/bluetooth/controller/libsubsys__bluetooth__controller.a(ll_filter.c.obj)
 .text          0x0000000000000000        0x0 subsys/bluetooth/controller/libsubsys__bluetooth__controller.a(cntr.c.obj)
 .data          0x0000000000000000        0x0 subsys/bluetooth/controller/libsubsys__bluetooth__controller.a(cntr.c.obj)
 .bss           0x0000000000000000        0x0 subsys/bluetooth/controller/libsubsys__bluetooth__controller.a(cntr.c.obj)
 .text          0x0000000000000000        0x0 subsys/bluetooth/controller/libsubsys__bluetooth__controller.a(rand.c.obj)
 .data          0x0000000000000000        0x0 subsys/bluetooth/controller/libsubsys__bluetooth__controller.a(rand.c.obj)
 .bss           0x0000000000000000        0x0 subsys/bluetooth/controller/libsubsys__bluetooth__controller.a(rand.c.obj)
 .text          0x0000000000000000        0x0 subsys/bluetooth/controller/libsubsys__bluetooth__controller.a(ecb.c.obj)
 .data          0x0000000000000000        0x0 subsys/bluetooth/controller/libsubsys__bluetooth__controller.a(ecb.c.obj)
 .bss           0x0000000000000000        0x0 subsys/bluetooth/controller/libsubsys__bluetooth__controller.a(ecb.c.obj)
 .text.ecb_cb   0x0000000000000000       0x18 subsys/bluetooth/controller/libsubsys__bluetooth__controller.a(ecb.c.obj)
 .text.ecb_encrypt_be
                0x0000000000000000       0x30 subsys/bluetooth/controller/libsubsys__bluetooth__controller.a(ecb.c.obj)
 .text.ecb_encrypt_nonblocking
                0x0000000000000000       0x60 subsys/bluetooth/controller/libsubsys__bluetooth__controller.a(ecb.c.obj)
 .text.isr_ecb  0x0000000000000000       0x58 subsys/bluetooth/controller/libsubsys__bluetooth__controller.a(ecb.c.obj)
 .text.ecb_ut   0x0000000000000000       0x68 subsys/bluetooth/controller/libsubsys__bluetooth__controller.a(ecb.c.obj)
 .rodata        0x0000000000000000       0x10 subsys/bluetooth/controller/libsubsys__bluetooth__controller.a(ecb.c.obj)
 .text          0x0000000000000000        0x0 subsys/bluetooth/controller/libsubsys__bluetooth__controller.a(radio.c.obj)
 .data          0x0000000000000000        0x0 subsys/bluetooth/controller/libsubsys__bluetooth__controller.a(radio.c.obj)
 .bss           0x0000000000000000        0x0 subsys/bluetooth/controller/libsubsys__bluetooth__controller.a(radio.c.obj)
 .text.radio_has_disabled
                0x0000000000000000       0x10 subsys/bluetooth/controller/libsubsys__bluetooth__controller.a(radio.c.obj)
 .text.radio_bc_configure
                0x0000000000000000       0x1c subsys/bluetooth/controller/libsubsys__bluetooth__controller.a(radio.c.obj)
 .text.radio_bc_status_reset
                0x0000000000000000        0xc subsys/bluetooth/controller/libsubsys__bluetooth__controller.a(radio.c.obj)
 .text.radio_bc_has_match
                0x0000000000000000       0x10 subsys/bluetooth/controller/libsubsys__bluetooth__controller.a(radio.c.obj)
 .text.radio_tmr_start_us
                0x0000000000000000       0x14 subsys/bluetooth/controller/libsubsys__bluetooth__controller.a(radio.c.obj)
 .text.radio_tmr_start_now
                0x0000000000000000       0x30 subsys/bluetooth/controller/libsubsys__bluetooth__controller.a(radio.c.obj)
 .text.radio_tmr_sample
                0x0000000000000000        0xc subsys/bluetooth/controller/libsubsys__bluetooth__controller.a(radio.c.obj)
 .text.radio_tmr_sample_get
                0x0000000000000000       0x10 subsys/bluetooth/controller/libsubsys__bluetooth__controller.a(radio.c.obj)
 .text.radio_ar_configure
                0x0000000000000000       0x70 subsys/bluetooth/controller/libsubsys__bluetooth__controller.a(radio.c.obj)
 .bss._aar_scratch
                0x0000000000000000        0x3 subsys/bluetooth/controller/libsubsys__bluetooth__controller.a(radio.c.obj)
 .text          0x0000000000000000        0x0 subsys/bluetooth/controller/libsubsys__bluetooth__controller.a(mayfly.c.obj)
 .data          0x0000000000000000        0x0 subsys/bluetooth/controller/libsubsys__bluetooth__controller.a(mayfly.c.obj)
 .bss           0x0000000000000000        0x0 subsys/bluetooth/controller/libsubsys__bluetooth__controller.a(mayfly.c.obj)
 .text          0x0000000000000000        0x0 subsys/bluetooth/controller/libsubsys__bluetooth__controller.a(ticker.c.obj)
 .data          0x0000000000000000        0x0 subsys/bluetooth/controller/libsubsys__bluetooth__controller.a(ticker.c.obj)
 .bss           0x0000000000000000        0x0 subsys/bluetooth/controller/libsubsys__bluetooth__controller.a(ticker.c.obj)
 .text          0x0000000000000000        0x0 subsys/net/libsubsys__net.a(buf.c.obj)
 .data          0x0000000000000000        0x0 subsys/net/libsubsys__net.a(buf.c.obj)
 .bss           0x0000000000000000        0x0 subsys/net/libsubsys__net.a(buf.c.obj)
 .text.generic_data_ref
                0x0000000000000000        0xc subsys/net/libsubsys__net.a(buf.c.obj)
 .text.mem_pool_data_alloc
                0x0000000000000000       0x3c subsys/net/libsubsys__net.a(buf.c.obj)
 .text.mem_pool_data_unref
                0x0000000000000000       0x22 subsys/net/libsubsys__net.a(buf.c.obj)
 .text.net_buf_reset
                0x0000000000000000        0xa subsys/net/libsubsys__net.a(buf.c.obj)
 .text.net_buf_alloc_with_data
                0x0000000000000000       0x22 subsys/net/libsubsys__net.a(buf.c.obj)
 .text.net_buf_get
                0x0000000000000000       0x30 subsys/net/libsubsys__net.a(buf.c.obj)
 .text.net_buf_slist_put
                0x0000000000000000       0x32 subsys/net/libsubsys__net.a(buf.c.obj)
 .text.net_buf_slist_get
                0x0000000000000000       0x66 subsys/net/libsubsys__net.a(buf.c.obj)
 .text.net_buf_frag_last
                0x0000000000000000        0xc subsys/net/libsubsys__net.a(buf.c.obj)
 .text.net_buf_frag_insert
                0x0000000000000000       0x1a subsys/net/libsubsys__net.a(buf.c.obj)
 .text.net_buf_frag_add
                0x0000000000000000       0x20 subsys/net/libsubsys__net.a(buf.c.obj)
 .text.net_buf_frag_del
                0x0000000000000000       0x1a subsys/net/libsubsys__net.a(buf.c.obj)
 .text.net_buf_clone
                0x0000000000000000       0xcc subsys/net/libsubsys__net.a(buf.c.obj)
 .text.net_buf_simple_add_u8
                0x0000000000000000       0x10 subsys/net/libsubsys__net.a(buf.c.obj)
 .text.net_buf_simple_add_le16
                0x0000000000000000       0x1e subsys/net/libsubsys__net.a(buf.c.obj)
 .text.net_buf_simple_add_be16
                0x0000000000000000       0x24 subsys/net/libsubsys__net.a(buf.c.obj)
 .text.net_buf_simple_add_le32
                0x0000000000000000       0x1a subsys/net/libsubsys__net.a(buf.c.obj)
 .text.net_buf_simple_add_be32
                0x0000000000000000       0x1c subsys/net/libsubsys__net.a(buf.c.obj)
 .text.net_buf_simple_push
                0x0000000000000000       0x10 subsys/net/libsubsys__net.a(buf.c.obj)
 .text.net_buf_simple_push_le16
                0x0000000000000000       0x20 subsys/net/libsubsys__net.a(buf.c.obj)
 .text.net_buf_simple_push_be16
                0x0000000000000000       0x26 subsys/net/libsubsys__net.a(buf.c.obj)
 .text.net_buf_simple_push_u8
                0x0000000000000000       0x10 subsys/net/libsubsys__net.a(buf.c.obj)
 .text.net_buf_simple_pull_le16
                0x0000000000000000       0x16 subsys/net/libsubsys__net.a(buf.c.obj)
 .text.net_buf_simple_pull_be16
                0x0000000000000000       0x1c subsys/net/libsubsys__net.a(buf.c.obj)
 .text.net_buf_simple_pull_le32
                0x0000000000000000       0x22 subsys/net/libsubsys__net.a(buf.c.obj)
 .text.net_buf_simple_pull_be32
                0x0000000000000000       0x3a subsys/net/libsubsys__net.a(buf.c.obj)
 .text.net_buf_simple_tailroom
                0x0000000000000000       0x10 subsys/net/libsubsys__net.a(buf.c.obj)
 .rodata.net_buf_var_cb
                0x0000000000000000        0xc subsys/net/libsubsys__net.a(buf.c.obj)
 .text          0x0000000000000000        0x0 kernel/libkernel.a(device.c.obj)
 .data          0x0000000000000000        0x0 kernel/libkernel.a(device.c.obj)
 .bss           0x0000000000000000        0x0 kernel/libkernel.a(device.c.obj)
 .text.device_busy_set
                0x0000000000000000        0x2 kernel/libkernel.a(device.c.obj)
 .text.device_busy_clear
                0x0000000000000000        0x2 kernel/libkernel.a(device.c.obj)
 .text          0x0000000000000000        0x0 kernel/libkernel.a(errno.c.obj)
 .data          0x0000000000000000        0x0 kernel/libkernel.a(errno.c.obj)
 .bss           0x0000000000000000        0x0 kernel/libkernel.a(errno.c.obj)
 .text.__errno  0x0000000000000000        0xc kernel/libkernel.a(errno.c.obj)
 .text          0x0000000000000000        0x0 kernel/libkernel.a(idle.c.obj)
 .data          0x0000000000000000        0x0 kernel/libkernel.a(idle.c.obj)
 .bss           0x0000000000000000        0x0 kernel/libkernel.a(idle.c.obj)
 .text._sys_soc_resume
                0x0000000000000000        0x2 kernel/libkernel.a(idle.c.obj)
 .text._sys_soc_resume_from_deep_sleep
                0x0000000000000000        0x2 kernel/libkernel.a(idle.c.obj)
 COMMON         0x0000000000000000        0x1 kernel/libkernel.a(idle.c.obj)
 .text          0x0000000000000000        0x0 kernel/libkernel.a(init.c.obj)
 .data          0x0000000000000000        0x0 kernel/libkernel.a(init.c.obj)
 .bss           0x0000000000000000        0x0 kernel/libkernel.a(init.c.obj)
 .text.k_call_stacks_analyze
                0x0000000000000000        0x2 kernel/libkernel.a(init.c.obj)
 .text.main     0x0000000000000000        0x2 kernel/libkernel.a(init.c.obj)
 .rodata._main_thread
                0x0000000000000000        0x4 kernel/libkernel.a(init.c.obj)
 .rodata.build_timestamp
                0x0000000000000000        0x4 kernel/libkernel.a(init.c.obj)
 .text          0x0000000000000000        0x0 kernel/libkernel.a(mempool.c.obj)
 .data          0x0000000000000000        0x0 kernel/libkernel.a(mempool.c.obj)
 .bss           0x0000000000000000        0x0 kernel/libkernel.a(mempool.c.obj)
 .text.clear_free_bit
                0x0000000000000000       0x16 kernel/libkernel.a(mempool.c.obj)
 .text.k_mem_pool_alloc
                0x0000000000000000      0x248 kernel/libkernel.a(mempool.c.obj)
 .text.k_mem_pool_free_id
                0x0000000000000000      0x200 kernel/libkernel.a(mempool.c.obj)
 .text.k_mem_pool_free
                0x0000000000000000        0xa kernel/libkernel.a(mempool.c.obj)
 .text          0x0000000000000000        0x0 kernel/libkernel.a(mutex.c.obj)
 .data          0x0000000000000000        0x0 kernel/libkernel.a(mutex.c.obj)
 .bss           0x0000000000000000        0x0 kernel/libkernel.a(mutex.c.obj)
 .text._impl_k_mutex_init
                0x0000000000000000        0xc kernel/libkernel.a(mutex.c.obj)
 .text          0x0000000000000000        0x0 kernel/libkernel.a(queue.c.obj)
 .data          0x0000000000000000        0x0 kernel/libkernel.a(queue.c.obj)
 .bss           0x0000000000000000        0x0 kernel/libkernel.a(queue.c.obj)
 .text.k_queue_cancel_wait
                0x0000000000000000       0x28 kernel/libkernel.a(queue.c.obj)
 .text.k_queue_merge_slist
                0x0000000000000000       0x14 kernel/libkernel.a(queue.c.obj)
 .text          0x0000000000000000        0x0 kernel/libkernel.a(sched.c.obj)
 .data          0x0000000000000000        0x0 kernel/libkernel.a(sched.c.obj)
 .bss           0x0000000000000000        0x0 kernel/libkernel.a(sched.c.obj)
 .text.k_sched_lock
                0x0000000000000000       0x10 kernel/libkernel.a(sched.c.obj)
 .text._impl_k_thread_priority_get
                0x0000000000000000        0x6 kernel/libkernel.a(sched.c.obj)
 .text._impl_k_thread_priority_set
                0x0000000000000000       0x30 kernel/libkernel.a(sched.c.obj)
 .text._impl_k_wakeup
                0x0000000000000000       0x5c kernel/libkernel.a(sched.c.obj)
 .text.k_sched_time_slice_set
                0x0000000000000000       0x1c kernel/libkernel.a(sched.c.obj)
 .text._impl_k_is_preempt_thread
                0x0000000000000000       0x20 kernel/libkernel.a(sched.c.obj)
 .text          0x0000000000000000        0x0 kernel/libkernel.a(sem.c.obj)
 .data          0x0000000000000000        0x0 kernel/libkernel.a(sem.c.obj)
 .bss           0x0000000000000000        0x0 kernel/libkernel.a(sem.c.obj)
 .text._sem_give_non_preemptible
                0x0000000000000000       0x22 kernel/libkernel.a(sem.c.obj)
 .text          0x0000000000000000        0x0 kernel/libkernel.a(sys_clock.c.obj)
 .data          0x0000000000000000        0x0 kernel/libkernel.a(sys_clock.c.obj)
 .bss           0x0000000000000000        0x0 kernel/libkernel.a(sys_clock.c.obj)
 .text._tick_get_32
                0x0000000000000000        0xc kernel/libkernel.a(sys_clock.c.obj)
 .text.k_uptime_delta
                0x0000000000000000       0x1a kernel/libkernel.a(sys_clock.c.obj)
 .text.k_uptime_delta_32
                0x0000000000000000        0x8 kernel/libkernel.a(sys_clock.c.obj)
 .data.sys_clock_us_per_tick
                0x0000000000000000        0x4 kernel/libkernel.a(sys_clock.c.obj)
 .text          0x0000000000000000        0x0 kernel/libkernel.a(system_work_q.c.obj)
 .data          0x0000000000000000        0x0 kernel/libkernel.a(system_work_q.c.obj)
 .bss           0x0000000000000000        0x0 kernel/libkernel.a(system_work_q.c.obj)
 .text          0x0000000000000000        0x0 kernel/libkernel.a(thread.c.obj)
 .data          0x0000000000000000        0x0 kernel/libkernel.a(thread.c.obj)
 .bss           0x0000000000000000        0x0 kernel/libkernel.a(thread.c.obj)
 .text._thread_essential_set
                0x0000000000000000       0x14 kernel/libkernel.a(thread.c.obj)
 .text._thread_essential_clear
                0x0000000000000000       0x14 kernel/libkernel.a(thread.c.obj)
 .text.k_busy_wait
                0x0000000000000000       0x28 kernel/libkernel.a(thread.c.obj)
 .text._impl_k_thread_cancel
                0x0000000000000000       0x30 kernel/libkernel.a(thread.c.obj)
 .text._k_thread_single_suspend
                0x0000000000000000       0x1c kernel/libkernel.a(thread.c.obj)
 .text._impl_k_thread_suspend
                0x0000000000000000       0x30 kernel/libkernel.a(thread.c.obj)
 .text._k_thread_single_resume
                0x0000000000000000       0x1c kernel/libkernel.a(thread.c.obj)
 .text._impl_k_thread_resume
                0x0000000000000000       0x14 kernel/libkernel.a(thread.c.obj)
 .text.k_thread_access_grant
                0x0000000000000000        0x6 kernel/libkernel.a(thread.c.obj)
 .text.k_thread_user_mode_enter
                0x0000000000000000       0x2c kernel/libkernel.a(thread.c.obj)
 .text          0x0000000000000000        0x0 kernel/libkernel.a(work_q.c.obj)
 .data          0x0000000000000000        0x0 kernel/libkernel.a(work_q.c.obj)
 .bss           0x0000000000000000        0x0 kernel/libkernel.a(work_q.c.obj)
 .text.k_work_submit_to_queue
                0x0000000000000000       0x1e kernel/libkernel.a(work_q.c.obj)
 .text.work_timeout
                0x0000000000000000        0xe kernel/libkernel.a(work_q.c.obj)
 .text.k_delayed_work_init
                0x0000000000000000       0x2c kernel/libkernel.a(work_q.c.obj)
 .text.k_delayed_work_cancel
                0x0000000000000000       0xa4 kernel/libkernel.a(work_q.c.obj)
 .text.k_delayed_work_submit_to_queue
                0x0000000000000000       0xac kernel/libkernel.a(work_q.c.obj)
 .text          0x0000000000000000        0x0 kernel/libkernel.a(timer.c.obj)
 .data          0x0000000000000000        0x0 kernel/libkernel.a(timer.c.obj)
 .bss           0x0000000000000000        0x0 kernel/libkernel.a(timer.c.obj)
 .text.k_timer_init
                0x0000000000000000       0x28 kernel/libkernel.a(timer.c.obj)
 .text._impl_k_timer_status_get
                0x0000000000000000       0x16 kernel/libkernel.a(timer.c.obj)
 .text._impl_k_timer_status_sync
                0x0000000000000000       0x40 kernel/libkernel.a(timer.c.obj)
 .text._timeout_remaining_get
                0x0000000000000000       0x4c kernel/libkernel.a(timer.c.obj)
 .text          0x0000000000000000        0x0 kernel/libkernel.a(atomic_c.c.obj)
 .data          0x0000000000000000        0x0 kernel/libkernel.a(atomic_c.c.obj)
 .bss           0x0000000000000000        0x0 kernel/libkernel.a(atomic_c.c.obj)
 .text.atomic_cas
                0x0000000000000000       0x1e kernel/libkernel.a(atomic_c.c.obj)
 .text.atomic_add
                0x0000000000000000       0x16 kernel/libkernel.a(atomic_c.c.obj)
 .text.atomic_sub
                0x0000000000000000       0x16 kernel/libkernel.a(atomic_c.c.obj)
 .text.atomic_inc
                0x0000000000000000       0x16 kernel/libkernel.a(atomic_c.c.obj)
 .text.atomic_dec
                0x0000000000000000       0x16 kernel/libkernel.a(atomic_c.c.obj)
 .text.atomic_clear
                0x0000000000000000       0x16 kernel/libkernel.a(atomic_c.c.obj)
 .text.atomic_xor
                0x0000000000000000       0x16 kernel/libkernel.a(atomic_c.c.obj)
 .text.atomic_nand
                0x0000000000000000       0x18 kernel/libkernel.a(atomic_c.c.obj)
 .text          0x0000000000000000        0x0 kernel/libkernel.a(poll.c.obj)
 .data          0x0000000000000000        0x0 kernel/libkernel.a(poll.c.obj)
 .bss           0x0000000000000000        0x0 kernel/libkernel.a(poll.c.obj)
 .text.k_poll_signal_init
                0x0000000000000000        0xa kernel/libkernel.a(poll.c.obj)
 .text.k_poll_signal
                0x0000000000000000       0x4e kernel/libkernel.a(poll.c.obj)
 .text          0x0000000000000000        0x0 CMakeFiles/offsets.dir/arch/arm/core/offsets/offsets.c.obj
 .data          0x0000000000000000        0x0 CMakeFiles/offsets.dir/arch/arm/core/offsets/offsets.c.obj
 .bss           0x0000000000000000        0x0 CMakeFiles/offsets.dir/arch/arm/core/offsets/offsets.c.obj
 .data          0x0000000000000000        0x0 /opt/zephyr-sdk/sysroots/armv5-zephyr-eabi/usr/lib/arm-zephyr-eabi/6.2.0/armv6-m/libgcc.a(_thumb1_case_sqi.o)
 .bss           0x0000000000000000        0x0 /opt/zephyr-sdk/sysroots/armv5-zephyr-eabi/usr/lib/arm-zephyr-eabi/6.2.0/armv6-m/libgcc.a(_thumb1_case_sqi.o)
 .data          0x0000000000000000        0x0 /opt/zephyr-sdk/sysroots/armv5-zephyr-eabi/usr/lib/arm-zephyr-eabi/6.2.0/armv6-m/libgcc.a(_thumb1_case_uqi.o)
 .bss           0x0000000000000000        0x0 /opt/zephyr-sdk/sysroots/armv5-zephyr-eabi/usr/lib/arm-zephyr-eabi/6.2.0/armv6-m/libgcc.a(_thumb1_case_uqi.o)
 .data          0x0000000000000000        0x0 /opt/zephyr-sdk/sysroots/armv5-zephyr-eabi/usr/lib/arm-zephyr-eabi/6.2.0/armv6-m/libgcc.a(_thumb1_case_shi.o)
 .bss           0x0000000000000000        0x0 /opt/zephyr-sdk/sysroots/armv5-zephyr-eabi/usr/lib/arm-zephyr-eabi/6.2.0/armv6-m/libgcc.a(_thumb1_case_shi.o)
 .data          0x0000000000000000        0x0 /opt/zephyr-sdk/sysroots/armv5-zephyr-eabi/usr/lib/arm-zephyr-eabi/6.2.0/armv6-m/libgcc.a(_thumb1_case_uhi.o)
 .bss           0x0000000000000000        0x0 /opt/zephyr-sdk/sysroots/armv5-zephyr-eabi/usr/lib/arm-zephyr-eabi/6.2.0/armv6-m/libgcc.a(_thumb1_case_uhi.o)
 .data          0x0000000000000000        0x0 /opt/zephyr-sdk/sysroots/armv5-zephyr-eabi/usr/lib/arm-zephyr-eabi/6.2.0/armv6-m/libgcc.a(_udivsi3.o)
 .bss           0x0000000000000000        0x0 /opt/zephyr-sdk/sysroots/armv5-zephyr-eabi/usr/lib/arm-zephyr-eabi/6.2.0/armv6-m/libgcc.a(_udivsi3.o)
 .data          0x0000000000000000        0x0 /opt/zephyr-sdk/sysroots/armv5-zephyr-eabi/usr/lib/arm-zephyr-eabi/6.2.0/armv6-m/libgcc.a(_divsi3.o)
 .bss           0x0000000000000000        0x0 /opt/zephyr-sdk/sysroots/armv5-zephyr-eabi/usr/lib/arm-zephyr-eabi/6.2.0/armv6-m/libgcc.a(_divsi3.o)
 .data          0x0000000000000000        0x0 /opt/zephyr-sdk/sysroots/armv5-zephyr-eabi/usr/lib/arm-zephyr-eabi/6.2.0/armv6-m/libgcc.a(_dvmd_tls.o)
 .bss           0x0000000000000000        0x0 /opt/zephyr-sdk/sysroots/armv5-zephyr-eabi/usr/lib/arm-zephyr-eabi/6.2.0/armv6-m/libgcc.a(_dvmd_tls.o)
 .data          0x0000000000000000        0x0 /opt/zephyr-sdk/sysroots/armv5-zephyr-eabi/usr/lib/arm-zephyr-eabi/6.2.0/armv6-m/libgcc.a(_lshrdi3.o)
 .bss           0x0000000000000000        0x0 /opt/zephyr-sdk/sysroots/armv5-zephyr-eabi/usr/lib/arm-zephyr-eabi/6.2.0/armv6-m/libgcc.a(_lshrdi3.o)
 .data          0x0000000000000000        0x0 /opt/zephyr-sdk/sysroots/armv5-zephyr-eabi/usr/lib/arm-zephyr-eabi/6.2.0/armv6-m/libgcc.a(_ashldi3.o)
 .bss           0x0000000000000000        0x0 /opt/zephyr-sdk/sysroots/armv5-zephyr-eabi/usr/lib/arm-zephyr-eabi/6.2.0/armv6-m/libgcc.a(_ashldi3.o)
 .data          0x0000000000000000        0x0 /opt/zephyr-sdk/sysroots/armv5-zephyr-eabi/usr/lib/arm-zephyr-eabi/6.2.0/armv6-m/libgcc.a(_aeabi_uldivmod.o)
 .bss           0x0000000000000000        0x0 /opt/zephyr-sdk/sysroots/armv5-zephyr-eabi/usr/lib/arm-zephyr-eabi/6.2.0/armv6-m/libgcc.a(_aeabi_uldivmod.o)
 .data          0x0000000000000000        0x0 /opt/zephyr-sdk/sysroots/armv5-zephyr-eabi/usr/lib/arm-zephyr-eabi/6.2.0/armv6-m/libgcc.a(_muldi3.o)
 .bss           0x0000000000000000        0x0 /opt/zephyr-sdk/sysroots/armv5-zephyr-eabi/usr/lib/arm-zephyr-eabi/6.2.0/armv6-m/libgcc.a(_muldi3.o)
 .data          0x0000000000000000        0x0 /opt/zephyr-sdk/sysroots/armv5-zephyr-eabi/usr/lib/arm-zephyr-eabi/6.2.0/armv6-m/libgcc.a(_ffssi2.o)
 .bss           0x0000000000000000        0x0 /opt/zephyr-sdk/sysroots/armv5-zephyr-eabi/usr/lib/arm-zephyr-eabi/6.2.0/armv6-m/libgcc.a(_ffssi2.o)
 .data          0x0000000000000000        0x0 /opt/zephyr-sdk/sysroots/armv5-zephyr-eabi/usr/lib/arm-zephyr-eabi/6.2.0/armv6-m/libgcc.a(_popcountsi2.o)
 .bss           0x0000000000000000        0x0 /opt/zephyr-sdk/sysroots/armv5-zephyr-eabi/usr/lib/arm-zephyr-eabi/6.2.0/armv6-m/libgcc.a(_popcountsi2.o)
 .data          0x0000000000000000        0x0 /opt/zephyr-sdk/sysroots/armv5-zephyr-eabi/usr/lib/arm-zephyr-eabi/6.2.0/armv6-m/libgcc.a(_fixunsdfsi.o)
 .bss           0x0000000000000000        0x0 /opt/zephyr-sdk/sysroots/armv5-zephyr-eabi/usr/lib/arm-zephyr-eabi/6.2.0/armv6-m/libgcc.a(_fixunsdfsi.o)
 .data          0x0000000000000000        0x0 /opt/zephyr-sdk/sysroots/armv5-zephyr-eabi/usr/lib/arm-zephyr-eabi/6.2.0/armv6-m/libgcc.a(_udivmoddi4.o)
 .bss           0x0000000000000000        0x0 /opt/zephyr-sdk/sysroots/armv5-zephyr-eabi/usr/lib/arm-zephyr-eabi/6.2.0/armv6-m/libgcc.a(_udivmoddi4.o)
 .ARM.extab     0x0000000000000000        0x0 /opt/zephyr-sdk/sysroots/armv5-zephyr-eabi/usr/lib/arm-zephyr-eabi/6.2.0/armv6-m/libgcc.a(_udivmoddi4.o)
 .data          0x0000000000000000        0x0 /opt/zephyr-sdk/sysroots/armv5-zephyr-eabi/usr/lib/arm-zephyr-eabi/6.2.0/armv6-m/libgcc.a(adddf3.o)
 .bss           0x0000000000000000        0x0 /opt/zephyr-sdk/sysroots/armv5-zephyr-eabi/usr/lib/arm-zephyr-eabi/6.2.0/armv6-m/libgcc.a(adddf3.o)
 .data          0x0000000000000000        0x0 /opt/zephyr-sdk/sysroots/armv5-zephyr-eabi/usr/lib/arm-zephyr-eabi/6.2.0/armv6-m/libgcc.a(divdf3.o)
 .bss           0x0000000000000000        0x0 /opt/zephyr-sdk/sysroots/armv5-zephyr-eabi/usr/lib/arm-zephyr-eabi/6.2.0/armv6-m/libgcc.a(divdf3.o)
 .data          0x0000000000000000        0x0 /opt/zephyr-sdk/sysroots/armv5-zephyr-eabi/usr/lib/arm-zephyr-eabi/6.2.0/armv6-m/libgcc.a(subdf3.o)
 .bss           0x0000000000000000        0x0 /opt/zephyr-sdk/sysroots/armv5-zephyr-eabi/usr/lib/arm-zephyr-eabi/6.2.0/armv6-m/libgcc.a(subdf3.o)
 .data          0x0000000000000000        0x0 /opt/zephyr-sdk/sysroots/armv5-zephyr-eabi/usr/lib/arm-zephyr-eabi/6.2.0/armv6-m/libgcc.a(fixdfsi.o)
 .bss           0x0000000000000000        0x0 /opt/zephyr-sdk/sysroots/armv5-zephyr-eabi/usr/lib/arm-zephyr-eabi/6.2.0/armv6-m/libgcc.a(fixdfsi.o)
 .data          0x0000000000000000        0x0 /opt/zephyr-sdk/sysroots/armv5-zephyr-eabi/usr/lib/arm-zephyr-eabi/6.2.0/armv6-m/libgcc.a(floatsidf.o)
 .bss           0x0000000000000000        0x0 /opt/zephyr-sdk/sysroots/armv5-zephyr-eabi/usr/lib/arm-zephyr-eabi/6.2.0/armv6-m/libgcc.a(floatsidf.o)
 .data          0x0000000000000000        0x0 /opt/zephyr-sdk/sysroots/armv5-zephyr-eabi/usr/lib/arm-zephyr-eabi/6.2.0/armv6-m/libgcc.a(_arm_cmpdf2.o)
 .bss           0x0000000000000000        0x0 /opt/zephyr-sdk/sysroots/armv5-zephyr-eabi/usr/lib/arm-zephyr-eabi/6.2.0/armv6-m/libgcc.a(_arm_cmpdf2.o)
 .data          0x0000000000000000        0x0 /opt/zephyr-sdk/sysroots/armv5-zephyr-eabi/usr/lib/arm-zephyr-eabi/6.2.0/armv6-m/libgcc.a(_clzsi2.o)
 .bss           0x0000000000000000        0x0 /opt/zephyr-sdk/sysroots/armv5-zephyr-eabi/usr/lib/arm-zephyr-eabi/6.2.0/armv6-m/libgcc.a(_clzsi2.o)
 .data          0x0000000000000000        0x0 /opt/zephyr-sdk/sysroots/armv5-zephyr-eabi/usr/lib/arm-zephyr-eabi/6.2.0/armv6-m/libgcc.a(_clzdi2.o)
 .bss           0x0000000000000000        0x0 /opt/zephyr-sdk/sysroots/armv5-zephyr-eabi/usr/lib/arm-zephyr-eabi/6.2.0/armv6-m/libgcc.a(_clzdi2.o)
 .data          0x0000000000000000        0x0 /opt/zephyr-sdk/sysroots/armv5-zephyr-eabi/usr/lib/arm-zephyr-eabi/6.2.0/armv6-m/libgcc.a(_ctzsi2.o)
 .bss           0x0000000000000000        0x0 /opt/zephyr-sdk/sysroots/armv5-zephyr-eabi/usr/lib/arm-zephyr-eabi/6.2.0/armv6-m/libgcc.a(_ctzsi2.o)
 .data          0x0000000000000000        0x0 /opt/zephyr-sdk/sysroots/armv5-zephyr-eabi/usr/lib/arm-zephyr-eabi/6.2.0/armv6-m/libgcc.a(eqdf2.o)
 .bss           0x0000000000000000        0x0 /opt/zephyr-sdk/sysroots/armv5-zephyr-eabi/usr/lib/arm-zephyr-eabi/6.2.0/armv6-m/libgcc.a(eqdf2.o)
 .data          0x0000000000000000        0x0 /opt/zephyr-sdk/sysroots/armv5-zephyr-eabi/usr/lib/arm-zephyr-eabi/6.2.0/armv6-m/libgcc.a(gedf2.o)
 .bss           0x0000000000000000        0x0 /opt/zephyr-sdk/sysroots/armv5-zephyr-eabi/usr/lib/arm-zephyr-eabi/6.2.0/armv6-m/libgcc.a(gedf2.o)
 .data          0x0000000000000000        0x0 /opt/zephyr-sdk/sysroots/armv5-zephyr-eabi/usr/lib/arm-zephyr-eabi/6.2.0/armv6-m/libgcc.a(ledf2.o)
 .bss           0x0000000000000000        0x0 /opt/zephyr-sdk/sysroots/armv5-zephyr-eabi/usr/lib/arm-zephyr-eabi/6.2.0/armv6-m/libgcc.a(ledf2.o)

Memory Configuration

Name             Origin             Length             Attributes
FLASH            0x0000000000000000 0x0000000000040000 xr
SRAM             0x0000000020000000 0x0000000000004000 xw
IDT_LIST         0x0000000020004000 0x0000000000000800 xw
*default*        0x0000000000000000 0xffffffffffffffff

Linker script and memory map

LOAD CMakeFiles/kernel_elf.dir/misc/empty_file.c.obj
LOAD CMakeFiles/kernel_elf.dir/isr_tables.c.obj
START GROUP
LOAD ../libapp.a
LOAD libzephyr.a
LOAD subsys/bluetooth/common/libsubsys__bluetooth__common.a
LOAD subsys/bluetooth/host/libsubsys__bluetooth__host.a
LOAD subsys/bluetooth/controller/libsubsys__bluetooth__controller.a
LOAD subsys/net/libsubsys__net.a
LOAD kernel/libkernel.a
LOAD CMakeFiles/offsets.dir/arch/arm/core/offsets/offsets.c.obj
END GROUP
LOAD /opt/zephyr-sdk/sysroots/armv5-zephyr-eabi/usr/lib/arm-zephyr-eabi/6.2.0/armv6-m/libgcc.a
                0x0000000000000000                _image_rom_start = 0x0

text            0x0000000000000000     0xd300
                0x0000000000000000                . = 0x0
                0x0000000000000000                _vector_start = .
 *(.exc_vector_table)
 *(.exc_vector_table.*)
 .exc_vector_table._vector_table_section
                0x0000000000000000       0x40 libzephyr.a(vector_table.S.obj)
                0x0000000000000000                _vector_table
 *(.gnu.linkonce.irq_vector_table)
 .gnu.linkonce.irq_vector_table
                0x0000000000000040       0x68 CMakeFiles/kernel_elf.dir/isr_tables.c.obj
                0x0000000000000040                _irq_vector_table
 *(.openocd_dbg)
 *(.openocd_dbg.*)
 *(.kinetis_flash_config)
 *(.kinetis_flash_config.*)
 *(.gnu.linkonce.sw_isr_table)
 .gnu.linkonce.sw_isr_table
                0x00000000000000a8       0xd0 CMakeFiles/kernel_elf.dir/isr_tables.c.obj
                0x00000000000000a8                _sw_isr_table
                0x0000000000000178                _vector_end = .
                0x0000000000000178                _image_text_start = .
 *(.text)
 .text          0x0000000000000178       0x14 /opt/zephyr-sdk/sysroots/armv5-zephyr-eabi/usr/lib/arm-zephyr-eabi/6.2.0/armv6-m/libgcc.a(_thumb1_case_sqi.o)
                0x0000000000000178                __gnu_thumb1_case_sqi
 .text          0x000000000000018c       0x14 /opt/zephyr-sdk/sysroots/armv5-zephyr-eabi/usr/lib/arm-zephyr-eabi/6.2.0/armv6-m/libgcc.a(_thumb1_case_uqi.o)
                0x000000000000018c                __gnu_thumb1_case_uqi
 .text          0x00000000000001a0       0x14 /opt/zephyr-sdk/sysroots/armv5-zephyr-eabi/usr/lib/arm-zephyr-eabi/6.2.0/armv6-m/libgcc.a(_thumb1_case_shi.o)
                0x00000000000001a0                __gnu_thumb1_case_shi
 .text          0x00000000000001b4       0x14 /opt/zephyr-sdk/sysroots/armv5-zephyr-eabi/usr/lib/arm-zephyr-eabi/6.2.0/armv6-m/libgcc.a(_thumb1_case_uhi.o)
                0x00000000000001b4                __gnu_thumb1_case_uhi
 .text          0x00000000000001c8       0x9c /opt/zephyr-sdk/sysroots/armv5-zephyr-eabi/usr/lib/arm-zephyr-eabi/6.2.0/armv6-m/libgcc.a(_udivsi3.o)
                0x00000000000001c8                __udivsi3
                0x00000000000001c8                __aeabi_uidiv
                0x0000000000000250                __aeabi_uidivmod
 .text          0x0000000000000264       0xc0 /opt/zephyr-sdk/sysroots/armv5-zephyr-eabi/usr/lib/arm-zephyr-eabi/6.2.0/armv6-m/libgcc.a(_divsi3.o)
                0x0000000000000264                __aeabi_idiv
                0x0000000000000264                __divsi3
                0x0000000000000310                __aeabi_idivmod
 .text          0x0000000000000324        0x4 /opt/zephyr-sdk/sysroots/armv5-zephyr-eabi/usr/lib/arm-zephyr-eabi/6.2.0/armv6-m/libgcc.a(_dvmd_tls.o)
                0x0000000000000324                __aeabi_ldiv0
                0x0000000000000324                __aeabi_idiv0
 .text          0x0000000000000328       0x18 /opt/zephyr-sdk/sysroots/armv5-zephyr-eabi/usr/lib/arm-zephyr-eabi/6.2.0/armv6-m/libgcc.a(_lshrdi3.o)
                0x0000000000000328                __aeabi_llsr
                0x0000000000000328                __lshrdi3
 .text          0x0000000000000340       0x18 /opt/zephyr-sdk/sysroots/armv5-zephyr-eabi/usr/lib/arm-zephyr-eabi/6.2.0/armv6-m/libgcc.a(_ashldi3.o)
                0x0000000000000340                __ashldi3
                0x0000000000000340                __aeabi_llsl
 .text          0x0000000000000358       0x40 /opt/zephyr-sdk/sysroots/armv5-zephyr-eabi/usr/lib/arm-zephyr-eabi/6.2.0/armv6-m/libgcc.a(_aeabi_uldivmod.o)
                0x0000000000000358                __aeabi_uldivmod
 .text          0x0000000000000398       0x54 /opt/zephyr-sdk/sysroots/armv5-zephyr-eabi/usr/lib/arm-zephyr-eabi/6.2.0/armv6-m/libgcc.a(_muldi3.o)
                0x0000000000000398                __aeabi_lmul
                0x0000000000000398                __muldi3
 .text          0x00000000000003ec       0x14 /opt/zephyr-sdk/sysroots/armv5-zephyr-eabi/usr/lib/arm-zephyr-eabi/6.2.0/armv6-m/libgcc.a(_ffssi2.o)
                0x00000000000003ec                __ffssi2
 .text          0x0000000000000400       0x34 /opt/zephyr-sdk/sysroots/armv5-zephyr-eabi/usr/lib/arm-zephyr-eabi/6.2.0/armv6-m/libgcc.a(_popcountsi2.o)
                0x0000000000000400                __popcountsi2
 .text          0x0000000000000434       0x3c /opt/zephyr-sdk/sysroots/armv5-zephyr-eabi/usr/lib/arm-zephyr-eabi/6.2.0/armv6-m/libgcc.a(_fixunsdfsi.o)
                0x0000000000000434                __fixunsdfsi
                0x0000000000000434                __aeabi_d2uiz
 .text          0x0000000000000470      0x180 /opt/zephyr-sdk/sysroots/armv5-zephyr-eabi/usr/lib/arm-zephyr-eabi/6.2.0/armv6-m/libgcc.a(_udivmoddi4.o)
                0x0000000000000470                __udivmoddi4
 .text          0x00000000000005f0      0x620 /opt/zephyr-sdk/sysroots/armv5-zephyr-eabi/usr/lib/arm-zephyr-eabi/6.2.0/armv6-m/libgcc.a(adddf3.o)
                0x00000000000005f0                __aeabi_dadd
 .text          0x0000000000000c10      0x668 /opt/zephyr-sdk/sysroots/armv5-zephyr-eabi/usr/lib/arm-zephyr-eabi/6.2.0/armv6-m/libgcc.a(divdf3.o)
                0x0000000000000c10                __aeabi_ddiv
 .text          0x0000000000001278      0x62c /opt/zephyr-sdk/sysroots/armv5-zephyr-eabi/usr/lib/arm-zephyr-eabi/6.2.0/armv6-m/libgcc.a(subdf3.o)
                0x0000000000001278                __aeabi_dsub
 .text          0x00000000000018a4       0x68 /opt/zephyr-sdk/sysroots/armv5-zephyr-eabi/usr/lib/arm-zephyr-eabi/6.2.0/armv6-m/libgcc.a(fixdfsi.o)
                0x00000000000018a4                __aeabi_d2iz
 .text          0x000000000000190c       0x84 /opt/zephyr-sdk/sysroots/armv5-zephyr-eabi/usr/lib/arm-zephyr-eabi/6.2.0/armv6-m/libgcc.a(floatsidf.o)
                0x000000000000190c                __aeabi_i2d
 .text          0x0000000000001990       0x7c /opt/zephyr-sdk/sysroots/armv5-zephyr-eabi/usr/lib/arm-zephyr-eabi/6.2.0/armv6-m/libgcc.a(_arm_cmpdf2.o)
                0x0000000000001990                __aeabi_cdrcmple
                0x00000000000019a0                __aeabi_cdcmple
                0x00000000000019a0                __aeabi_cdcmpeq
                0x00000000000019b0                __aeabi_dcmpeq
                0x00000000000019bc                __aeabi_dcmplt
                0x00000000000019d0                __aeabi_dcmple
                0x00000000000019e4                __aeabi_dcmpgt
                0x00000000000019f8                __aeabi_dcmpge
 .text          0x0000000000001a0c       0x3c /opt/zephyr-sdk/sysroots/armv5-zephyr-eabi/usr/lib/arm-zephyr-eabi/6.2.0/armv6-m/libgcc.a(_clzsi2.o)
                0x0000000000001a0c                __clzsi2
 .text          0x0000000000001a48       0x18 /opt/zephyr-sdk/sysroots/armv5-zephyr-eabi/usr/lib/arm-zephyr-eabi/6.2.0/armv6-m/libgcc.a(_clzdi2.o)
                0x0000000000001a48                __clzdi2
 .text          0x0000000000001a60       0x40 /opt/zephyr-sdk/sysroots/armv5-zephyr-eabi/usr/lib/arm-zephyr-eabi/6.2.0/armv6-m/libgcc.a(_ctzsi2.o)
                0x0000000000001a60                __ctzsi2
 .text          0x0000000000001aa0       0x74 /opt/zephyr-sdk/sysroots/armv5-zephyr-eabi/usr/lib/arm-zephyr-eabi/6.2.0/armv6-m/libgcc.a(eqdf2.o)
                0x0000000000001aa0                __eqdf2
                0x0000000000001aa0                __nedf2
 .text          0x0000000000001b14       0xc8 /opt/zephyr-sdk/sysroots/armv5-zephyr-eabi/usr/lib/arm-zephyr-eabi/6.2.0/armv6-m/libgcc.a(gedf2.o)
                0x0000000000001b14                __gtdf2
                0x0000000000001b14                __gedf2
 .text          0x0000000000001bdc       0xc4 /opt/zephyr-sdk/sysroots/armv5-zephyr-eabi/usr/lib/arm-zephyr-eabi/6.2.0/armv6-m/libgcc.a(ledf2.o)
                0x0000000000001bdc                __ltdf2
                0x0000000000001bdc                __ledf2
 *(.text.*)
 .text.strcpy   0x0000000000001ca0       0x12 ../libapp.a(string.c.obj)
                0x0000000000001ca0                strcpy
 .text.strchr   0x0000000000001cb2       0x1a ../libapp.a(string.c.obj)
                0x0000000000001cb2                strchr
 .text.strcmp   0x0000000000001ccc       0x18 ../libapp.a(string.c.obj)
                0x0000000000001ccc                strcmp
 .text.memcmp   0x0000000000001ce4       0x26 ../libapp.a(string.c.obj)
                0x0000000000001ce4                memcmp
 .text.memmove  0x0000000000001d0a       0x22 ../libapp.a(string.c.obj)
                0x0000000000001d0a                memmove
 .text.memcpy   0x0000000000001d2c       0x54 ../libapp.a(string.c.obj)
                0x0000000000001d2c                memcpy
 .text.memset   0x0000000000001d80       0x4a ../libapp.a(string.c.obj)
                0x0000000000001d80                memset
 .text._to_x    0x0000000000001dca       0x64 ../libapp.a(prf.c.obj)
 .text._rlrshift
                0x0000000000001e2e       0x20 ../libapp.a(prf.c.obj)
 *fill*         0x0000000000001e4e        0x2 
 .text._ldiv5   0x0000000000001e50       0x78 ../libapp.a(prf.c.obj)
 .text._get_digit
                0x0000000000001ec8       0x2c ../libapp.a(prf.c.obj)
 .text._prf     0x0000000000001ef4      0x6ec ../libapp.a(prf.c.obj)
                0x0000000000001ef4                _prf
 .text._stdout_hook_default
                0x00000000000025e0        0x6 ../libapp.a(stdout_console.c.obj)
 *fill*         0x00000000000025e6        0x2 
 .text.__stdout_hook_install
                0x00000000000025e8        0xc ../libapp.a(stdout_console.c.obj)
                0x00000000000025e8                __stdout_hook_install
 .text.fputc    0x00000000000025f4       0x18 ../libapp.a(stdout_console.c.obj)
                0x00000000000025f4                fputc
 .text.printf   0x000000000000260c       0x20 ../libapp.a(fprintf.c.obj)
                0x000000000000260c                printf
 .text.s1_display
                0x000000000000262c       0x1c ../libapp.a(main.c.obj)
                0x000000000000262c                s1_display
 .text.s2_accelerometer
                0x0000000000002648       0x18 ../libapp.a(main.c.obj)
                0x0000000000002648                s2_accelerometer
 .text.s3_compass
                0x0000000000002660       0x18 ../libapp.a(main.c.obj)
                0x0000000000002660                s3_compass
 .text.s5_bluetooth
                0x0000000000002678       0x18 ../libapp.a(main.c.obj)
                0x0000000000002678                s5_bluetooth
 .text.button_pressed
                0x0000000000002690       0x4c ../libapp.a(main.c.obj)
 .text.s4_temperature
                0x00000000000026dc       0x20 ../libapp.a(main.c.obj)
                0x00000000000026dc                s4_temperature
 .text.main     0x00000000000026fc      0x128 ../libapp.a(main.c.obj)
                0x00000000000026fc                main
 .text.nordicsemi_nrf51_init
                0x0000000000002824       0x9c libzephyr.a(soc.c.obj)
 .text._HandlerModeExit
                0x00000000000028c0       0x30 libzephyr.a(exc_exit.S.obj)
                0x00000000000028c0                _ExcExit
                0x00000000000028c0                _IntExit
 .text._IntLibInit
                0x00000000000028f0       0x30 libzephyr.a(irq_init.c.obj)
                0x00000000000028f0                _IntLibInit
 .text.__pendsv
                0x0000000000002920       0x5c libzephyr.a(swap.S.obj)
                0x0000000000002920                __pendsv
 .text.__svc    0x000000000000297c       0x28 libzephyr.a(swap.S.obj)
                0x000000000000297c                __svc
 .text.__swap   0x00000000000029a4       0x28 libzephyr.a(swap.S.obj)
                0x00000000000029a4                __swap
 .text._Fault   0x00000000000029cc       0x54 libzephyr.a(fault.c.obj)
                0x00000000000029cc                _Fault
 .text._FaultInit
                0x0000000000002a20        0x2 libzephyr.a(fault.c.obj)
                0x0000000000002a20                _FaultInit
 *fill*         0x0000000000002a22        0x2 
 .text._arch_irq_enable
                0x0000000000002a24       0x18 libzephyr.a(irq_manage.c.obj)
                0x0000000000002a24                _arch_irq_enable
 .text._arch_irq_disable
                0x0000000000002a3c       0x20 libzephyr.a(irq_manage.c.obj)
                0x0000000000002a3c                _arch_irq_disable
 .text._arch_irq_is_enabled
                0x0000000000002a5c       0x1c libzephyr.a(irq_manage.c.obj)
                0x0000000000002a5c                _arch_irq_is_enabled
 .text._irq_priority_set
                0x0000000000002a78       0x64 libzephyr.a(irq_manage.c.obj)
                0x0000000000002a78                _irq_priority_set
 .text._irq_spurious
                0x0000000000002adc        0x8 libzephyr.a(irq_manage.c.obj)
                0x0000000000002adc                _irq_spurious
 .text._arch_isr_direct_pm
                0x0000000000002ae4       0x24 libzephyr.a(irq_manage.c.obj)
                0x0000000000002ae4                _arch_isr_direct_pm
 .text._new_thread
                0x0000000000002b08       0x4c libzephyr.a(thread.c.obj)
                0x0000000000002b08                _new_thread
 .text._CpuIdleInit
                0x0000000000002b54        0xc libzephyr.a(cpu_idle.S.obj)
                0x0000000000002b54                _CpuIdleInit
 .text.k_cpu_idle
                0x0000000000002b60        0x8 libzephyr.a(cpu_idle.S.obj)
                0x0000000000002b60                k_cpu_idle
 .text.__fault  0x0000000000002b68       0x1c libzephyr.a(fault_s.S.obj)
                0x0000000000002b68                __reserved
                0x0000000000002b68                __hard_fault
 .text._NanoFatalErrorHandler
                0x0000000000002b84       0x54 libzephyr.a(fatal.c.obj)
                0x0000000000002b84                _NanoFatalErrorHandler
 .text._do_kernel_oops
                0x0000000000002bd8        0xc libzephyr.a(fatal.c.obj)
                0x0000000000002bd8                _do_kernel_oops
 .text._SysFatalErrorHandler
                0x0000000000002be4       0x54 libzephyr.a(sys_fatal_error_handler.c.obj)
                0x0000000000002be4                _SysFatalErrorHandler
 .text._impl_k_thread_abort
                0x0000000000002c38       0x44 libzephyr.a(thread_abort.c.obj)
                0x0000000000002c38                _impl_k_thread_abort
 .text._isr_wrapper
                0x0000000000002c7c       0x38 libzephyr.a(isr_wrapper.S.obj)
                0x0000000000002c7c                _isr_wrapper
 .text._reset_section
                0x0000000000002cb4       0x1c libzephyr.a(reset.S.obj)
                0x0000000000002cb4                __reset
                0x0000000000002cb4                __start
 .text._SysNmiOnReset
                0x0000000000002cd0        0x4 libzephyr.a(nmi_on_reset.S.obj)
                0x0000000000002cd0                _SysNmiOnReset
 .text.relocate_vector_table
                0x0000000000002cd4        0x2 libzephyr.a(prep_c.c.obj)
                0x0000000000002cd4                relocate_vector_table
 .text._PrepC   0x0000000000002cd6       0x12 libzephyr.a(prep_c.c.obj)
                0x0000000000002cd6                _PrepC
 .text.__nmi    0x0000000000002ce8        0xc libzephyr.a(nmi.c.obj)
                0x0000000000002ce8                __nmi
 .text._nop_char_out
                0x0000000000002cf4        0x4 libzephyr.a(printk.c.obj)
 .text.char_out
                0x0000000000002cf8       0x14 libzephyr.a(printk.c.obj)
 .text._printk_dec_ulong
                0x0000000000002d0c       0xb0 libzephyr.a(printk.c.obj)
 .text.str_out  0x0000000000002dbc       0x2c libzephyr.a(printk.c.obj)
 .text.__printk_hook_install
                0x0000000000002de8        0xc libzephyr.a(printk.c.obj)
                0x0000000000002de8                __printk_hook_install
 .text._vprintk
                0x0000000000002df4      0x258 libzephyr.a(printk.c.obj)
                0x0000000000002df4                _vprintk
 .text.vprintk  0x000000000000304c       0x1c libzephyr.a(printk.c.obj)
                0x000000000000304c                vprintk
 .text.printk   0x0000000000003068       0x16 libzephyr.a(printk.c.obj)
                0x0000000000003068                printk
 *fill*         0x000000000000307e        0x2 
 .text.snprintk
                0x0000000000003080       0x38 libzephyr.a(printk.c.obj)
                0x0000000000003080                snprintk
 .text.vsnprintk
                0x00000000000030b8       0x28 libzephyr.a(printk.c.obj)
                0x00000000000030b8                vsnprintk
 .text._ConfigAbsSyms
                0x00000000000030e0        0x2 libzephyr.a(configs.c.obj)
                0x00000000000030e0                _ConfigAbsSyms
 *fill*         0x00000000000030e2        0x2 
 .text.console_out
                0x00000000000030e4       0x28 libzephyr.a(uart_console.c.obj)
 .text.uart_console_hook_install
                0x000000000000310c       0x18 libzephyr.a(uart_console.c.obj)
                0x000000000000310c                uart_console_hook_install
 .text.uart_console_init
                0x0000000000003124       0x1c libzephyr.a(uart_console.c.obj)
 .text.reset_display
                0x0000000000003140       0x24 libzephyr.a(mb_display.c.obj)
 .text.start_image
                0x0000000000003164       0x98 libzephyr.a(mb_display.c.obj)
 .text.gpio_pin_configure.constprop.4
                0x00000000000031fc       0x10 libzephyr.a(mb_display.c.obj)
 .text.mb_display_init
                0x000000000000320c       0x78 libzephyr.a(mb_display.c.obj)
 .text.current_img
                0x0000000000003284       0x44 libzephyr.a(mb_display.c.obj)
 .text.start_single
                0x00000000000032c8       0x30 libzephyr.a(mb_display.c.obj)
 .text.clear_display
                0x00000000000032f8       0x18 libzephyr.a(mb_display.c.obj)
 .text.show_row
                0x0000000000003310      0x1cc libzephyr.a(mb_display.c.obj)
 .text.mb_display_print
                0x00000000000034dc       0xa0 libzephyr.a(mb_display.c.obj)
                0x00000000000034dc                mb_display_print
 .text.mb_display_get
                0x000000000000357c        0x8 libzephyr.a(mb_display.c.obj)
                0x000000000000357c                mb_display_get
 .text._m16src_stop
                0x0000000000003584       0x68 libzephyr.a(nrf5_power_clock.c.obj)
 .text._clock_control_init
                0x00000000000035ec       0x16 libzephyr.a(nrf5_power_clock.c.obj)
 *fill*         0x0000000000003602        0x2 
 .text._m16src_start
                0x0000000000003604       0xbc libzephyr.a(nrf5_power_clock.c.obj)
 .text._k32src_start
                0x00000000000036c0       0xd4 libzephyr.a(nrf5_power_clock.c.obj)
 .text._power_clock_isr
                0x0000000000003794       0xa0 libzephyr.a(nrf5_power_clock.c.obj)
 .text.gpiote_find_channel
                0x0000000000003834       0x36 libzephyr.a(gpio_nrf5.c.obj)
 .text.gpio_nrf5_read
                0x000000000000386a       0x20 libzephyr.a(gpio_nrf5.c.obj)
 *fill*         0x000000000000388a        0x2 
 .text.gpio_nrf5_write
                0x000000000000388c       0x30 libzephyr.a(gpio_nrf5.c.obj)
 .text.gpio_nrf5_manage_callback
                0x00000000000038bc       0x4a libzephyr.a(gpio_nrf5.c.obj)
 .text.gpio_nrf5_enable_callback
                0x0000000000003906       0x42 libzephyr.a(gpio_nrf5.c.obj)
 .text.gpio_nrf5_disable_callback
                0x0000000000003948       0x3a libzephyr.a(gpio_nrf5.c.obj)
 .text.gpio_nrf5_P0_init
                0x0000000000003982       0x16 libzephyr.a(gpio_nrf5.c.obj)
 .text.gpio_nrf5_port_isr
                0x0000000000003998       0x6a libzephyr.a(gpio_nrf5.c.obj)
 *fill*         0x0000000000003a02        0x2 
 .text.gpio_nrf5_config
                0x0000000000003a04      0x128 libzephyr.a(gpio_nrf5.c.obj)
 .text.i2c_set_scl
                0x0000000000003b2c        0xc libzephyr.a(i2c_bitbang.c.obj)
 .text.i2c_set_sda
                0x0000000000003b38        0xc libzephyr.a(i2c_bitbang.c.obj)
 .text.i2c_get_sda
                0x0000000000003b44        0xc libzephyr.a(i2c_bitbang.c.obj)
 .text.i2c_delay
                0x0000000000003b50       0x16 libzephyr.a(i2c_bitbang.c.obj)
 .text.i2c_start
                0x0000000000003b66       0x3c libzephyr.a(i2c_bitbang.c.obj)
 .text.i2c_read_bit
                0x0000000000003ba2       0x3a libzephyr.a(i2c_bitbang.c.obj)
 .text.i2c_write_bit
                0x0000000000003bdc       0x2e libzephyr.a(i2c_bitbang.c.obj)
 .text.i2c_stop
                0x0000000000003c0a       0x3e libzephyr.a(i2c_bitbang.c.obj)
 .text.i2c_bitbang_configure
                0x0000000000003c48       0x2c libzephyr.a(i2c_bitbang.c.obj)
                0x0000000000003c48                i2c_bitbang_configure
 .text.i2c_bitbang_transfer
                0x0000000000003c74      0x12c libzephyr.a(i2c_bitbang.c.obj)
                0x0000000000003c74                i2c_bitbang_transfer
 .text.i2c_bitbang_init
                0x0000000000003da0       0x10 libzephyr.a(i2c_bitbang.c.obj)
                0x0000000000003da0                i2c_bitbang_init
 .text.i2c_gpio_init
                0x0000000000003db0       0x40 libzephyr.a(i2c_gpio.c.obj)
 .text.i2c_gpio_transfer
                0x0000000000003df0        0xa libzephyr.a(i2c_gpio.c.obj)
 .text.i2c_gpio_configure
                0x0000000000003dfa        0xa libzephyr.a(i2c_gpio.c.obj)
 .text.i2c_gpio_get_sda
                0x0000000000003e04       0x1a libzephyr.a(i2c_gpio.c.obj)
 .text.i2c_gpio_set_sda
                0x0000000000003e1e       0x14 libzephyr.a(i2c_gpio.c.obj)
 .text.i2c_gpio_set_scl
                0x0000000000003e32       0x14 libzephyr.a(i2c_gpio.c.obj)
 .text.i2c_nrf5_config_func_0
                0x0000000000003e46       0x14 libzephyr.a(i2c_nrf5.c.obj)
 .text.i2c_nrf5_isr
                0x0000000000003e5a       0x6e libzephyr.a(i2c_nrf5.c.obj)
 .text.i2c_nrf5_configure
                0x0000000000003ec8       0x54 libzephyr.a(i2c_nrf5.c.obj)
 .text.i2c_nrf5_transfer
                0x0000000000003f1c      0x198 libzephyr.a(i2c_nrf5.c.obj)
 .text.i2c_nrf5_init
                0x00000000000040b4       0xa0 libzephyr.a(i2c_nrf5.c.obj)
 .text.pwm_nrf5_sw_pin_set
                0x0000000000004154      0x1e4 libzephyr.a(pwm_nrf5_sw.c.obj)
 .text.pwm_nrf5_sw_get_cycles_per_sec
                0x0000000000004338        0xe libzephyr.a(pwm_nrf5_sw.c.obj)
 .text.pwm_nrf5_sw_init
                0x0000000000004346        0x4 libzephyr.a(pwm_nrf5_sw.c.obj)
 *fill*         0x000000000000434a        0x2 
 .text.temp_nrf5_channel_get
                0x000000000000434c       0x38 libzephyr.a(temp_nrf5.c.obj)
 .text.temp_nrf5_init
                0x0000000000004384       0x40 libzephyr.a(temp_nrf5.c.obj)
 .text.temp_nrf5_isr
                0x00000000000043c4       0x14 libzephyr.a(temp_nrf5.c.obj)
 .text.temp_nrf5_sample_fetch
                0x00000000000043d8       0x48 libzephyr.a(temp_nrf5.c.obj)
 .text.uart_nrf5_poll_in
                0x0000000000004420       0x24 libzephyr.a(uart_nrf5.c.obj)
 .text.uart_nrf5_poll_out
                0x0000000000004444       0x20 libzephyr.a(uart_nrf5.c.obj)
 .text.uart_nrf5_err_check
                0x0000000000004464       0x20 libzephyr.a(uart_nrf5.c.obj)
 .text.uart_nrf5_init
                0x0000000000004484       0x80 libzephyr.a(uart_nrf5.c.obj)
 .text.rtc_compare_set
                0x0000000000004504       0x34 libzephyr.a(nrf_rtc_timer.c.obj)
 .text.rtc_announce_set_next
                0x0000000000004538       0x5c libzephyr.a(nrf_rtc_timer.c.obj)
 .text.rtc1_nrf5_isr
                0x0000000000004594       0x14 libzephyr.a(nrf_rtc_timer.c.obj)
 .text._timer_idle_enter
                0x00000000000045a8       0x2c libzephyr.a(nrf_rtc_timer.c.obj)
                0x00000000000045a8                _timer_idle_enter
 .text._timer_idle_exit
                0x00000000000045d4       0x2c libzephyr.a(nrf_rtc_timer.c.obj)
                0x00000000000045d4                _timer_idle_exit
 .text._sys_clock_driver_init
                0x0000000000004600       0x84 libzephyr.a(nrf_rtc_timer.c.obj)
                0x0000000000004600                _sys_clock_driver_init
 .text._timer_cycle_get_32
                0x0000000000004684       0x3c libzephyr.a(nrf_rtc_timer.c.obj)
                0x0000000000004684                _timer_cycle_get_32
 .text.hci_cmd_done.isra.9
                0x00000000000046c0       0x50 subsys/bluetooth/host/libsubsys__bluetooth__host.a(hci_core.c.obj)
 .text.atomic_test_bit.constprop.24
                0x0000000000004710       0x24 subsys/bluetooth/host/libsubsys__bluetooth__host.a(hci_core.c.obj)
 .text.bt_hci_cmd_create
                0x0000000000004734       0x60 subsys/bluetooth/host/libsubsys__bluetooth__host.a(hci_core.c.obj)
                0x0000000000004734                bt_hci_cmd_create
 .text.bt_hci_cmd_send_sync
                0x0000000000004794       0x84 subsys/bluetooth/host/libsubsys__bluetooth__host.a(hci_core.c.obj)
                0x0000000000004794                bt_hci_cmd_send_sync
 .text.set_random_address
                0x0000000000004818       0x5c subsys/bluetooth/host/libsubsys__bluetooth__host.a(hci_core.c.obj)
 .text.set_le_scan_enable
                0x0000000000004874       0x68 subsys/bluetooth/host/libsubsys__bluetooth__host.a(hci_core.c.obj)
 .text.bt_le_scan_update
                0x00000000000048dc       0x22 subsys/bluetooth/host/libsubsys__bluetooth__host.a(hci_core.c.obj)
                0x00000000000048dc                bt_le_scan_update
 .text.bt_addr_le_create_static
                0x00000000000048fe       0x20 subsys/bluetooth/host/libsubsys__bluetooth__host.a(hci_core.c.obj)
                0x00000000000048fe                bt_addr_le_create_static
 *fill*         0x000000000000491e        0x2 
 .text.hci_init
                0x0000000000004920      0x3a4 subsys/bluetooth/host/libsubsys__bluetooth__host.a(hci_core.c.obj)
 .text.init_work
                0x0000000000004cc4       0x30 subsys/bluetooth/host/libsubsys__bluetooth__host.a(hci_core.c.obj)
 .text.bt_recv  0x0000000000004cf4      0x15c subsys/bluetooth/host/libsubsys__bluetooth__host.a(hci_core.c.obj)
                0x0000000000004cf4                bt_recv
 .text.bt_recv_prio
                0x0000000000004e50       0x88 subsys/bluetooth/host/libsubsys__bluetooth__host.a(hci_core.c.obj)
                0x0000000000004e50                bt_recv_prio
 .text.bt_hci_driver_register
                0x0000000000004ed8       0x2c subsys/bluetooth/host/libsubsys__bluetooth__host.a(hci_core.c.obj)
                0x0000000000004ed8                bt_hci_driver_register
 .text.bt_buf_get_rx
                0x0000000000004f04       0x20 subsys/bluetooth/host/libsubsys__bluetooth__host.a(hci_core.c.obj)
                0x0000000000004f04                bt_buf_get_rx
 .text.bt_buf_get_cmd_complete
                0x0000000000004f24       0x40 subsys/bluetooth/host/libsubsys__bluetooth__host.a(hci_core.c.obj)
                0x0000000000004f24                bt_buf_get_cmd_complete
 .text.mem_init
                0x0000000000004f64       0x4c subsys/bluetooth/controller/libsubsys__bluetooth__controller.a(mem.c.obj)
                0x0000000000004f64                mem_init
 .text.mem_acquire
                0x0000000000004fb0       0x32 subsys/bluetooth/controller/libsubsys__bluetooth__controller.a(mem.c.obj)
                0x0000000000004fb0                mem_acquire
 .text.mem_release
                0x0000000000004fe2       0x2c subsys/bluetooth/controller/libsubsys__bluetooth__controller.a(mem.c.obj)
                0x0000000000004fe2                mem_release
 .text.mem_get  0x000000000000500e        0x6 subsys/bluetooth/controller/libsubsys__bluetooth__controller.a(mem.c.obj)
                0x000000000000500e                mem_get
 .text.mem_index_get
                0x0000000000005014       0x10 subsys/bluetooth/controller/libsubsys__bluetooth__controller.a(mem.c.obj)
                0x0000000000005014                mem_index_get
 .text.mem_rcopy
                0x0000000000005024       0x20 subsys/bluetooth/controller/libsubsys__bluetooth__controller.a(mem.c.obj)
                0x0000000000005024                mem_rcopy
 .text.memq_init
                0x0000000000005044        0x6 subsys/bluetooth/controller/libsubsys__bluetooth__controller.a(memq.c.obj)
                0x0000000000005044                memq_init
 .text.memq_enqueue
                0x000000000000504a        0xc subsys/bluetooth/controller/libsubsys__bluetooth__controller.a(memq.c.obj)
                0x000000000000504a                memq_enqueue
 .text.memq_peek
                0x0000000000005056       0x12 subsys/bluetooth/controller/libsubsys__bluetooth__controller.a(memq.c.obj)
                0x0000000000005056                memq_peek
 .text.memq_dequeue
                0x0000000000005068       0x20 subsys/bluetooth/controller/libsubsys__bluetooth__controller.a(memq.c.obj)
                0x0000000000005068                memq_dequeue
 .text.mayfly_init
                0x0000000000005088       0x4c subsys/bluetooth/controller/libsubsys__bluetooth__controller.a(mayfly.c.obj)
                0x0000000000005088                mayfly_init
 .text.mayfly_enable
                0x00000000000050d4       0x48 subsys/bluetooth/controller/libsubsys__bluetooth__controller.a(mayfly.c.obj)
                0x00000000000050d4                mayfly_enable
 .text.mayfly_enqueue
                0x000000000000511c       0xa4 subsys/bluetooth/controller/libsubsys__bluetooth__controller.a(mayfly.c.obj)
                0x000000000000511c                mayfly_enqueue
 .text.mayfly_run
                0x00000000000051c0      0x120 subsys/bluetooth/controller/libsubsys__bluetooth__controller.a(mayfly.c.obj)
                0x00000000000051c0                mayfly_run
 .text.util_ones_count_get
                0x00000000000052e0       0x22 subsys/bluetooth/controller/libsubsys__bluetooth__controller.a(util.c.obj)
                0x00000000000052e0                util_ones_count_get
 .text.ticker_dequeue
                0x0000000000005302       0x50 subsys/bluetooth/controller/libsubsys__bluetooth__controller.a(ticker.c.obj)
 .text.ticks_to_expire_prep
                0x0000000000005352       0x3a subsys/bluetooth/controller/libsubsys__bluetooth__controller.a(ticker.c.obj)
 .text.ticker_job_op_cb
                0x000000000000538c       0x18 subsys/bluetooth/controller/libsubsys__bluetooth__controller.a(ticker.c.obj)
 .text.ticker_worker
                0x00000000000053a4       0xa6 subsys/bluetooth/controller/libsubsys__bluetooth__controller.a(ticker.c.obj)
                0x00000000000053a4                ticker_worker
 *fill*         0x000000000000544a        0x2 
 .text.ticker_job
                0x000000000000544c      0x728 subsys/bluetooth/controller/libsubsys__bluetooth__controller.a(ticker.c.obj)
                0x000000000000544c                ticker_job
 .text.ticker_init
                0x0000000000005b74       0x70 subsys/bluetooth/controller/libsubsys__bluetooth__controller.a(ticker.c.obj)
                0x0000000000005b74                ticker_init
 .text.ticker_trigger
                0x0000000000005be4       0x20 subsys/bluetooth/controller/libsubsys__bluetooth__controller.a(ticker.c.obj)
                0x0000000000005be4                ticker_trigger
 .text.ticker_start
                0x0000000000005c04       0x84 subsys/bluetooth/controller/libsubsys__bluetooth__controller.a(ticker.c.obj)
                0x0000000000005c04                ticker_start
 .text.ticker_update
                0x0000000000005c88       0xa0 subsys/bluetooth/controller/libsubsys__bluetooth__controller.a(ticker.c.obj)
                0x0000000000005c88                ticker_update
 .text.ticker_stop
                0x0000000000005d28       0x5c subsys/bluetooth/controller/libsubsys__bluetooth__controller.a(ticker.c.obj)
                0x0000000000005d28                ticker_stop
 .text.ticker_next_slot_get
                0x0000000000005d84       0x6c subsys/bluetooth/controller/libsubsys__bluetooth__controller.a(ticker.c.obj)
                0x0000000000005d84                ticker_next_slot_get
 .text.ticker_job_idle_get
                0x0000000000005df0       0x60 subsys/bluetooth/controller/libsubsys__bluetooth__controller.a(ticker.c.obj)
                0x0000000000005df0                ticker_job_idle_get
 .text.ticker_job_sched
                0x0000000000005e50       0x20 subsys/bluetooth/controller/libsubsys__bluetooth__controller.a(ticker.c.obj)
                0x0000000000005e50                ticker_job_sched
 .text.ticker_ticks_now_get
                0x0000000000005e70        0x8 subsys/bluetooth/controller/libsubsys__bluetooth__controller.a(ticker.c.obj)
                0x0000000000005e70                ticker_ticks_now_get
 .text.ticker_ticks_diff_get
                0x0000000000005e78        0x8 subsys/bluetooth/controller/libsubsys__bluetooth__controller.a(ticker.c.obj)
                0x0000000000005e78                ticker_ticks_diff_get
 .text.ll_addr_get
                0x0000000000005e80       0x30 subsys/bluetooth/controller/libsubsys__bluetooth__controller.a(ll_addr.c.obj)
                0x0000000000005e80                ll_addr_get
 .text.ll_addr_set
                0x0000000000005eb0       0x38 subsys/bluetooth/controller/libsubsys__bluetooth__controller.a(ll_addr.c.obj)
                0x0000000000005eb0                ll_addr_set
 .text.ll_tx_pwr_get
                0x0000000000005ee8        0x8 subsys/bluetooth/controller/libsubsys__bluetooth__controller.a(ll_tx_pwr.c.obj)
                0x0000000000005ee8                ll_tx_pwr_get
 .text.bt_rand  0x0000000000005ef0       0x3c subsys/bluetooth/controller/libsubsys__bluetooth__controller.a(crypto.c.obj)
                0x0000000000005ef0                bt_rand
 .text._hci_driver_init
                0x0000000000005f2c       0x10 subsys/bluetooth/controller/libsubsys__bluetooth__controller.a(hci_driver.c.obj)
 .text.hci_driver_send
                0x0000000000005f3c       0x2c subsys/bluetooth/controller/libsubsys__bluetooth__controller.a(hci_driver.c.obj)
 .text.recv_thread
                0x0000000000005f68       0x74 subsys/bluetooth/controller/libsubsys__bluetooth__controller.a(hci_driver.c.obj)
 .text.prio_recv_thread
                0x0000000000005fdc       0x3c subsys/bluetooth/controller/libsubsys__bluetooth__controller.a(hci_driver.c.obj)
 .text.hci_driver_open
                0x0000000000006018       0x70 subsys/bluetooth/controller/libsubsys__bluetooth__controller.a(hci_driver.c.obj)
 .text.sys_put_le32
                0x0000000000006088       0x10 subsys/bluetooth/controller/libsubsys__bluetooth__controller.a(hci.c.obj)
 .text.evt_create
                0x0000000000006098       0x14 subsys/bluetooth/controller/libsubsys__bluetooth__controller.a(hci.c.obj)
 .text.cmd_complete
                0x00000000000060ac       0x44 subsys/bluetooth/controller/libsubsys__bluetooth__controller.a(hci.c.obj)
 .text.meta_evt
                0x00000000000060f0       0x28 subsys/bluetooth/controller/libsubsys__bluetooth__controller.a(hci.c.obj)
 .text.le_remote_feat_complete
                0x0000000000006118       0x50 subsys/bluetooth/controller/libsubsys__bluetooth__controller.a(hci.c.obj)
 .text.bt_addr_le_to_str.constprop.42
                0x0000000000006168       0x78 subsys/bluetooth/controller/libsubsys__bluetooth__controller.a(hci.c.obj)
 .text.le_adv_ext_report.isra.37.part.38
                0x00000000000061e0       0x32 subsys/bluetooth/controller/libsubsys__bluetooth__controller.a(hci.c.obj)
 .text.sys_get_le64
                0x0000000000006212       0x2c subsys/bluetooth/controller/libsubsys__bluetooth__controller.a(hci.c.obj)
 *fill*         0x000000000000623e        0x2 
 .text.hci_cmd_handle
                0x0000000000006240      0x59c subsys/bluetooth/controller/libsubsys__bluetooth__controller.a(hci.c.obj)
                0x0000000000006240                hci_cmd_handle
 .text.hci_evt_encode
                0x00000000000067dc      0x1a8 subsys/bluetooth/controller/libsubsys__bluetooth__controller.a(hci.c.obj)
                0x00000000000067dc                hci_evt_encode
 .text.hci_get_class
                0x0000000000006984       0x40 subsys/bluetooth/controller/libsubsys__bluetooth__controller.a(hci.c.obj)
                0x0000000000006984                hci_get_class
 .text.hci_init
                0x00000000000069c4       0x24 subsys/bluetooth/controller/libsubsys__bluetooth__controller.a(hci.c.obj)
                0x00000000000069c4                hci_init
 .text.cpu_sleep
                0x00000000000069e8        0x8 subsys/bluetooth/controller/libsubsys__bluetooth__controller.a(ctrl.c.obj)
 .text.pdu_len_cmp
                0x00000000000069f0       0x28 subsys/bluetooth/controller/libsubsys__bluetooth__controller.a(ctrl.c.obj)
 .text.ticker_if_done
                0x0000000000006a18        0x4 subsys/bluetooth/controller/libsubsys__bluetooth__controller.a(ctrl.c.obj)
 .text.prepare_reduced
                0x0000000000006a1c       0x10 subsys/bluetooth/controller/libsubsys__bluetooth__controller.a(ctrl.c.obj)
 .text.prepare_normal
                0x0000000000006a2c        0xe subsys/bluetooth/controller/libsubsys__bluetooth__controller.a(ctrl.c.obj)
 .text.chan_sel_remap
                0x0000000000006a3a       0x34 subsys/bluetooth/controller/libsubsys__bluetooth__controller.a(ctrl.c.obj)
 *fill*         0x0000000000006a6e        0x2 
 .text.packet_rx_reserve_get
                0x0000000000006a70       0x40 subsys/bluetooth/controller/libsubsys__bluetooth__controller.a(ctrl.c.obj)
 .text.conn_update_req
                0x0000000000006ab0       0x6a subsys/bluetooth/controller/libsubsys__bluetooth__controller.a(ctrl.c.obj)
 *fill*         0x0000000000006b1a        0x2 
 .text.tx_cmplt_get
                0x0000000000006b1c       0x98 subsys/bluetooth/controller/libsubsys__bluetooth__controller.a(ctrl.c.obj)
 .text.connection_get
                0x0000000000006bb4       0x30 subsys/bluetooth/controller/libsubsys__bluetooth__controller.a(ctrl.c.obj)
 .text.role_disable
                0x0000000000006be4      0x200 subsys/bluetooth/controller/libsubsys__bluetooth__controller.a(ctrl.c.obj)
 .text.sched_after_mstr_free_slot_get
                0x0000000000006de4      0x11c subsys/bluetooth/controller/libsubsys__bluetooth__controller.a(ctrl.c.obj)
 .text.isr_adv_ci_adva_check
                0x0000000000006f00       0x42 subsys/bluetooth/controller/libsubsys__bluetooth__controller.a(ctrl.c.obj)
 *fill*         0x0000000000006f42        0x2 
 .text.rx_fc_lock
                0x0000000000006f44       0x38 subsys/bluetooth/controller/libsubsys__bluetooth__controller.a(ctrl.c.obj)
 .text.ticker_job_disable
                0x0000000000006f7c       0x1c subsys/bluetooth/controller/libsubsys__bluetooth__controller.a(ctrl.c.obj)
 .text.hdr_conn_get
                0x0000000000006f98       0x3c subsys/bluetooth/controller/libsubsys__bluetooth__controller.a(ctrl.c.obj)
 .text.mayfly_xtal_retain.part.15
                0x0000000000006fd4       0x30 subsys/bluetooth/controller/libsubsys__bluetooth__controller.a(ctrl.c.obj)
 .text.rx_packet_set
                0x0000000000007004       0x40 subsys/bluetooth/controller/libsubsys__bluetooth__controller.a(ctrl.c.obj)
 .text.tx_packet_set
                0x0000000000007044       0x3e subsys/bluetooth/controller/libsubsys__bluetooth__controller.a(ctrl.c.obj)
 *fill*         0x0000000000007082        0x2 
 .text.isr_scan_tgta_check.isra.30
                0x0000000000007084       0x5c subsys/bluetooth/controller/libsubsys__bluetooth__controller.a(ctrl.c.obj)
 .text.radio_event_adv_prepare.part.43
                0x00000000000070e0        0x6 subsys/bluetooth/controller/libsubsys__bluetooth__controller.a(ctrl.c.obj)
 *fill*         0x00000000000070e6        0x2 
 .text.prepare_normal_set
                0x00000000000070e8       0x48 subsys/bluetooth/controller/libsubsys__bluetooth__controller.a(ctrl.c.obj)
 .text.terminate_ind_rx_enqueue
                0x0000000000007130       0x44 subsys/bluetooth/controller/libsubsys__bluetooth__controller.a(ctrl.c.obj)
 .text.packet_rx_enqueue
                0x0000000000007174       0x60 subsys/bluetooth/controller/libsubsys__bluetooth__controller.a(ctrl.c.obj)
 .text.mayfly_adv_stop
                0x00000000000071d4       0x2e subsys/bluetooth/controller/libsubsys__bluetooth__controller.a(ctrl.c.obj)
 *fill*         0x0000000000007202        0x2 
 .text.ticker_stop_adv_stop
                0x0000000000007204      0x118 subsys/bluetooth/controller/libsubsys__bluetooth__controller.a(ctrl.c.obj)
 .text.sched_after_mstr_free_offset_get
                0x000000000000731c       0x6c subsys/bluetooth/controller/libsubsys__bluetooth__controller.a(ctrl.c.obj)
 .text.mayfly_sched_win_offset_use
                0x0000000000007388       0x30 subsys/bluetooth/controller/libsubsys__bluetooth__controller.a(ctrl.c.obj)
 .text.chan_set
                0x00000000000073b8       0x38 subsys/bluetooth/controller/libsubsys__bluetooth__controller.a(ctrl.c.obj)
 .text.adv_setup
                0x00000000000073f0       0xbc subsys/bluetooth/controller/libsubsys__bluetooth__controller.a(ctrl.c.obj)
 .text.pdu_node_tx_release
                0x00000000000074ac       0x48 subsys/bluetooth/controller/libsubsys__bluetooth__controller.a(ctrl.c.obj)
 .text.packet_tx_enqueue
                0x00000000000074f4       0xa0 subsys/bluetooth/controller/libsubsys__bluetooth__controller.a(ctrl.c.obj)
 .text.connection_release
                0x0000000000007594      0x10c subsys/bluetooth/controller/libsubsys__bluetooth__controller.a(ctrl.c.obj)
 .text.mayfly_radio_stop
                0x00000000000076a0       0x34 subsys/bluetooth/controller/libsubsys__bluetooth__controller.a(ctrl.c.obj)
 .text.mayfly_radio_active
                0x00000000000076d4       0x34 subsys/bluetooth/controller/libsubsys__bluetooth__controller.a(ctrl.c.obj)
 .text.mayfly_radio_inactive
                0x0000000000007708        0xa subsys/bluetooth/controller/libsubsys__bluetooth__controller.a(ctrl.c.obj)
 *fill*         0x0000000000007712        0x2 
 .text.event_xtal
                0x0000000000007714       0x1c subsys/bluetooth/controller/libsubsys__bluetooth__controller.a(ctrl.c.obj)
 .text.event_active
                0x0000000000007730       0x1c subsys/bluetooth/controller/libsubsys__bluetooth__controller.a(ctrl.c.obj)
 .text.ticker_update_slave_assert
                0x000000000000774c       0x1c subsys/bluetooth/controller/libsubsys__bluetooth__controller.a(ctrl.c.obj)
 .text.ticker_update_adv_assert
                0x0000000000007768       0x18 subsys/bluetooth/controller/libsubsys__bluetooth__controller.a(ctrl.c.obj)
 .text.ticker_stop_scan_assert
                0x0000000000007780       0x28 subsys/bluetooth/controller/libsubsys__bluetooth__controller.a(ctrl.c.obj)
 .text.ticker_stop_adv_assert
                0x00000000000077a8       0x28 subsys/bluetooth/controller/libsubsys__bluetooth__controller.a(ctrl.c.obj)
 .text.ticker_success_assert
                0x00000000000077d0        0xc subsys/bluetooth/controller/libsubsys__bluetooth__controller.a(ctrl.c.obj)
 .text.isr_rx_scan_report.isra.37
                0x00000000000077dc       0x60 subsys/bluetooth/controller/libsubsys__bluetooth__controller.a(ctrl.c.obj)
 .text.adv_scan_configure.constprop.47
                0x000000000000783c       0x4c subsys/bluetooth/controller/libsubsys__bluetooth__controller.a(ctrl.c.obj)
 .text.event_stop.constprop.48
                0x0000000000007888       0x20 subsys/bluetooth/controller/libsubsys__bluetooth__controller.a(ctrl.c.obj)
 .text.event_common_prepare
                0x00000000000078a8      0x188 subsys/bluetooth/controller/libsubsys__bluetooth__controller.a(ctrl.c.obj)
 .text.radio_event_adv_prepare
                0x0000000000007a30       0x38 subsys/bluetooth/controller/libsubsys__bluetooth__controller.a(ctrl.c.obj)
                0x0000000000007a30                radio_event_adv_prepare
 .text.event_adv_stop
                0x0000000000007a68       0x2c subsys/bluetooth/controller/libsubsys__bluetooth__controller.a(ctrl.c.obj)
                0x0000000000007a68                event_adv_stop
 .text.packet_rx_allocate.constprop.49
                0x0000000000007a94       0x8c subsys/bluetooth/controller/libsubsys__bluetooth__controller.a(ctrl.c.obj)
 .text.common_init
                0x0000000000007b20       0xd4 subsys/bluetooth/controller/libsubsys__bluetooth__controller.a(ctrl.c.obj)
 .text.mayfly_xtal_start
                0x0000000000007bf4       0x14 subsys/bluetooth/controller/libsubsys__bluetooth__controller.a(ctrl.c.obj)
 .text.mayfly_xtal_stop
                0x0000000000007c08       0x14 subsys/bluetooth/controller/libsubsys__bluetooth__controller.a(ctrl.c.obj)
 .text.chan_sel_2
                0x0000000000007c1c       0x80 subsys/bluetooth/controller/libsubsys__bluetooth__controller.a(ctrl.c.obj)
 .text.preempt_calc
                0x0000000000007c9c       0x44 subsys/bluetooth/controller/libsubsys__bluetooth__controller.a(ctrl.c.obj)
 .text.event_adv
                0x0000000000007ce0       0xa8 subsys/bluetooth/controller/libsubsys__bluetooth__controller.a(ctrl.c.obj)
 .text.ctrl_tx_enqueue
                0x0000000000007d88       0x62 subsys/bluetooth/controller/libsubsys__bluetooth__controller.a(ctrl.c.obj)
 .text.ctrl_tx_sec_enqueue
                0x0000000000007dea       0x32 subsys/bluetooth/controller/libsubsys__bluetooth__controller.a(ctrl.c.obj)
 .text.feature_rsp_send
                0x0000000000007e1c       0x88 subsys/bluetooth/controller/libsubsys__bluetooth__controller.a(ctrl.c.obj)
 .text.event_connection_prepare
                0x0000000000007ea4      0x6c8 subsys/bluetooth/controller/libsubsys__bluetooth__controller.a(ctrl.c.obj)
 .text.event_master_prepare
                0x000000000000856c        0x8 subsys/bluetooth/controller/libsubsys__bluetooth__controller.a(ctrl.c.obj)
 .text.event_slave_prepare
                0x0000000000008574        0x8 subsys/bluetooth/controller/libsubsys__bluetooth__controller.a(ctrl.c.obj)
 .text.connection_configure
                0x000000000000857c       0x3c subsys/bluetooth/controller/libsubsys__bluetooth__controller.a(ctrl.c.obj)
 .text.event_slave
                0x00000000000085b8      0x16c subsys/bluetooth/controller/libsubsys__bluetooth__controller.a(ctrl.c.obj)
 .text.prepare_pdu_data_tx
                0x0000000000008724       0xd8 subsys/bluetooth/controller/libsubsys__bluetooth__controller.a(ctrl.c.obj)
 .text.isr      0x00000000000087fc     0x16a0 subsys/bluetooth/controller/libsubsys__bluetooth__controller.a(ctrl.c.obj)
 .text.mayfly_xtal_stop_calc
                0x0000000000009e9c      0x1f8 subsys/bluetooth/controller/libsubsys__bluetooth__controller.a(ctrl.c.obj)
 .text.event_master
                0x000000000000a094      0x134 subsys/bluetooth/controller/libsubsys__bluetooth__controller.a(ctrl.c.obj)
 .text.radio_init
                0x000000000000a1c8       0xf8 subsys/bluetooth/controller/libsubsys__bluetooth__controller.a(ctrl.c.obj)
                0x000000000000a1c8                radio_init
 .text.ll_reset
                0x000000000000a2c0       0xac subsys/bluetooth/controller/libsubsys__bluetooth__controller.a(ctrl.c.obj)
                0x000000000000a2c0                ll_reset
 .text.radio_adv_data_get
                0x000000000000a36c        0xc subsys/bluetooth/controller/libsubsys__bluetooth__controller.a(ctrl.c.obj)
                0x000000000000a36c                radio_adv_data_get
 .text.radio_scan_data_get
                0x000000000000a378        0xc subsys/bluetooth/controller/libsubsys__bluetooth__controller.a(ctrl.c.obj)
                0x000000000000a378                radio_scan_data_get
 .text.ll_adv_is_enabled
                0x000000000000a384       0x10 subsys/bluetooth/controller/libsubsys__bluetooth__controller.a(ctrl.c.obj)
                0x000000000000a384                ll_adv_is_enabled
 .text.radio_adv_filter_pol_get
                0x000000000000a394       0x18 subsys/bluetooth/controller/libsubsys__bluetooth__controller.a(ctrl.c.obj)
                0x000000000000a394                radio_adv_filter_pol_get
 .text.ll_scan_is_enabled
                0x000000000000a3ac       0x2c subsys/bluetooth/controller/libsubsys__bluetooth__controller.a(ctrl.c.obj)
                0x000000000000a3ac                ll_scan_is_enabled
 .text.radio_scan_filter_pol_get
                0x000000000000a3d8       0x1c subsys/bluetooth/controller/libsubsys__bluetooth__controller.a(ctrl.c.obj)
                0x000000000000a3d8                radio_scan_filter_pol_get
 .text.ll_tx_pwr_lvl_get
                0x000000000000a3f4       0x16 subsys/bluetooth/controller/libsubsys__bluetooth__controller.a(ctrl.c.obj)
                0x000000000000a3f4                ll_tx_pwr_lvl_get
 *fill*         0x000000000000a40a        0x2 
 .text.ll_rx_get
                0x000000000000a40c       0x74 subsys/bluetooth/controller/libsubsys__bluetooth__controller.a(ctrl.c.obj)
                0x000000000000a40c                ll_rx_get
 .text.ll_rx_mem_release
                0x000000000000a480       0x60 subsys/bluetooth/controller/libsubsys__bluetooth__controller.a(ctrl.c.obj)
                0x000000000000a480                ll_rx_mem_release
 .text.do_radio_rx_fc_set
                0x000000000000a4e0       0x68 subsys/bluetooth/controller/libsubsys__bluetooth__controller.a(ctrl.c.obj)
                0x000000000000a4e0                do_radio_rx_fc_set
 .text.radio_rx_fc_set
                0x000000000000a548       0x64 subsys/bluetooth/controller/libsubsys__bluetooth__controller.a(ctrl.c.obj)
                0x000000000000a548                radio_rx_fc_set
 .text.ll_adv_scan_state_cb
                0x000000000000a5ac        0x2 subsys/bluetooth/controller/libsubsys__bluetooth__controller.a(ctrl.c.obj)
                0x000000000000a5ac                ll_adv_scan_state_cb
 *fill*         0x000000000000a5ae        0x2 
 .text.radio_adv_enable
                0x000000000000a5b0      0x2f4 subsys/bluetooth/controller/libsubsys__bluetooth__controller.a(ctrl.c.obj)
                0x000000000000a5b0                radio_adv_enable
 .text.radio_adv_disable
                0x000000000000a8a4       0x60 subsys/bluetooth/controller/libsubsys__bluetooth__controller.a(ctrl.c.obj)
                0x000000000000a8a4                radio_adv_disable
 .text.ll_rx_dequeue
                0x000000000000a904       0xe4 subsys/bluetooth/controller/libsubsys__bluetooth__controller.a(ctrl.c.obj)
                0x000000000000a904                ll_rx_dequeue
 .text.rtc0_nrf5_isr
                0x000000000000a9e8       0x30 subsys/bluetooth/controller/libsubsys__bluetooth__controller.a(ll.c.obj)
 .text.swi4_nrf5_isr
                0x000000000000aa18        0xa subsys/bluetooth/controller/libsubsys__bluetooth__controller.a(ll.c.obj)
 .text.rng_nrf5_isr
                0x000000000000aa22        0x8 subsys/bluetooth/controller/libsubsys__bluetooth__controller.a(ll.c.obj)
 .text.radio_nrf5_isr
                0x000000000000aa2a       0x10 subsys/bluetooth/controller/libsubsys__bluetooth__controller.a(ll.c.obj)
                0x000000000000aa2a                radio_nrf5_isr
 .text.radio_active_callback
                0x000000000000aa3a        0x2 subsys/bluetooth/controller/libsubsys__bluetooth__controller.a(ll.c.obj)
                0x000000000000aa3a                radio_active_callback
 .text.radio_event_callback
                0x000000000000aa3c       0x10 subsys/bluetooth/controller/libsubsys__bluetooth__controller.a(ll.c.obj)
                0x000000000000aa3c                radio_event_callback
 .text.ll_init  0x000000000000aa4c      0x124 subsys/bluetooth/controller/libsubsys__bluetooth__controller.a(ll.c.obj)
                0x000000000000aa4c                ll_init
 .text.ll_adv_params_set
                0x000000000000ab70      0x1f4 subsys/bluetooth/controller/libsubsys__bluetooth__controller.a(ll_adv.c.obj)
                0x000000000000ab70                ll_adv_params_set
 .text.ll_adv_data_set
                0x000000000000ad64       0xb0 subsys/bluetooth/controller/libsubsys__bluetooth__controller.a(ll_adv.c.obj)
                0x000000000000ad64                ll_adv_data_set
 .text.ll_scan_data_set
                0x000000000000ae14       0x76 subsys/bluetooth/controller/libsubsys__bluetooth__controller.a(ll_adv.c.obj)
                0x000000000000ae14                ll_scan_data_set
 *fill*         0x000000000000ae8a        0x2 
 .text.ll_adv_enable
                0x000000000000ae8c       0xac subsys/bluetooth/controller/libsubsys__bluetooth__controller.a(ll_adv.c.obj)
                0x000000000000ae8c                ll_adv_enable
 .text.ctrl_filter_get
                0x000000000000af38       0x14 subsys/bluetooth/controller/libsubsys__bluetooth__controller.a(ll_filter.c.obj)
                0x000000000000af38                ctrl_filter_get
 .text.ll_wl_size_get
                0x000000000000af4c        0x4 subsys/bluetooth/controller/libsubsys__bluetooth__controller.a(ll_filter.c.obj)
                0x000000000000af4c                ll_wl_size_get
 .text.ll_wl_clear
                0x000000000000af50       0x2c subsys/bluetooth/controller/libsubsys__bluetooth__controller.a(ll_filter.c.obj)
                0x000000000000af50                ll_wl_clear
 .text.ll_wl_add
                0x000000000000af7c       0x6c subsys/bluetooth/controller/libsubsys__bluetooth__controller.a(ll_filter.c.obj)
                0x000000000000af7c                ll_wl_add
 .text.ll_wl_remove
                0x000000000000afe8       0x88 subsys/bluetooth/controller/libsubsys__bluetooth__controller.a(ll_filter.c.obj)
                0x000000000000afe8                ll_wl_remove
 .text.ll_filter_reset
                0x000000000000b070       0x18 subsys/bluetooth/controller/libsubsys__bluetooth__controller.a(ll_filter.c.obj)
                0x000000000000b070                ll_filter_reset
 .text.cntr_init
                0x000000000000b088       0x20 subsys/bluetooth/controller/libsubsys__bluetooth__controller.a(cntr.c.obj)
                0x000000000000b088                cntr_init
 .text.cntr_start
                0x000000000000b0a8       0x20 subsys/bluetooth/controller/libsubsys__bluetooth__controller.a(cntr.c.obj)
                0x000000000000b0a8                cntr_start
 .text.cntr_stop
                0x000000000000b0c8       0x2c subsys/bluetooth/controller/libsubsys__bluetooth__controller.a(cntr.c.obj)
                0x000000000000b0c8                cntr_stop
 .text.cntr_cnt_get
                0x000000000000b0f4       0x10 subsys/bluetooth/controller/libsubsys__bluetooth__controller.a(cntr.c.obj)
                0x000000000000b0f4                cntr_cnt_get
 .text.cntr_cmp_set
                0x000000000000b104       0x10 subsys/bluetooth/controller/libsubsys__bluetooth__controller.a(cntr.c.obj)
                0x000000000000b104                cntr_cmp_set
 .text.isr      0x000000000000b114       0x4c subsys/bluetooth/controller/libsubsys__bluetooth__controller.a(rand.c.obj)
 .text.get      0x000000000000b160       0xd8 subsys/bluetooth/controller/libsubsys__bluetooth__controller.a(rand.c.obj)
 .text.init     0x000000000000b238       0x58 subsys/bluetooth/controller/libsubsys__bluetooth__controller.a(rand.c.obj)
 .text.rand_init
                0x000000000000b290       0x14 subsys/bluetooth/controller/libsubsys__bluetooth__controller.a(rand.c.obj)
                0x000000000000b290                rand_init
 .text.rand_isr_init
                0x000000000000b2a4       0x14 subsys/bluetooth/controller/libsubsys__bluetooth__controller.a(rand.c.obj)
                0x000000000000b2a4                rand_isr_init
 .text.rand_get
                0x000000000000b2b8       0x14 subsys/bluetooth/controller/libsubsys__bluetooth__controller.a(rand.c.obj)
                0x000000000000b2b8                rand_get
 .text.rand_isr_get
                0x000000000000b2cc       0x14 subsys/bluetooth/controller/libsubsys__bluetooth__controller.a(rand.c.obj)
                0x000000000000b2cc                rand_isr_get
 .text.isr_rand
                0x000000000000b2e0       0x4c subsys/bluetooth/controller/libsubsys__bluetooth__controller.a(rand.c.obj)
                0x000000000000b2e0                isr_rand
 .text.do_ecb   0x000000000000b32c       0x48 subsys/bluetooth/controller/libsubsys__bluetooth__controller.a(ecb.c.obj)
 .text.ecb_encrypt
                0x000000000000b374       0x44 subsys/bluetooth/controller/libsubsys__bluetooth__controller.a(ecb.c.obj)
                0x000000000000b374                ecb_encrypt
 .text.hal_radio_enable_on_tick_ppi_config_and_enable
                0x000000000000b3b8       0x38 subsys/bluetooth/controller/libsubsys__bluetooth__controller.a(radio.c.obj)
 .text.isr_radio
                0x000000000000b3f0       0x14 subsys/bluetooth/controller/libsubsys__bluetooth__controller.a(radio.c.obj)
                0x000000000000b3f0                isr_radio
 .text.radio_isr_set
                0x000000000000b404       0x30 subsys/bluetooth/controller/libsubsys__bluetooth__controller.a(radio.c.obj)
                0x000000000000b404                radio_isr_set
 .text.radio_setup
                0x000000000000b434        0x2 subsys/bluetooth/controller/libsubsys__bluetooth__controller.a(radio.c.obj)
                0x000000000000b434                radio_setup
 *fill*         0x000000000000b436        0x2 
 .text.radio_reset
                0x000000000000b438       0x20 subsys/bluetooth/controller/libsubsys__bluetooth__controller.a(radio.c.obj)
                0x000000000000b438                radio_reset
 .text.radio_phy_set
                0x000000000000b458       0x18 subsys/bluetooth/controller/libsubsys__bluetooth__controller.a(radio.c.obj)
                0x000000000000b458                radio_phy_set
 .text.radio_tx_power_set
                0x000000000000b470       0x10 subsys/bluetooth/controller/libsubsys__bluetooth__controller.a(radio.c.obj)
                0x000000000000b470                radio_tx_power_set
 .text.radio_freq_chan_set
                0x000000000000b480       0x10 subsys/bluetooth/controller/libsubsys__bluetooth__controller.a(radio.c.obj)
                0x000000000000b480                radio_freq_chan_set
 .text.radio_whiten_iv_set
                0x000000000000b490       0x28 subsys/bluetooth/controller/libsubsys__bluetooth__controller.a(radio.c.obj)
                0x000000000000b490                radio_whiten_iv_set
 .text.radio_aa_set
                0x000000000000b4b8       0x3c subsys/bluetooth/controller/libsubsys__bluetooth__controller.a(radio.c.obj)
                0x000000000000b4b8                radio_aa_set
 .text.radio_pkt_configure
                0x000000000000b4f4       0x4c subsys/bluetooth/controller/libsubsys__bluetooth__controller.a(radio.c.obj)
                0x000000000000b4f4                radio_pkt_configure
 .text.radio_pkt_rx_set
                0x000000000000b540       0x10 subsys/bluetooth/controller/libsubsys__bluetooth__controller.a(radio.c.obj)
                0x000000000000b540                radio_pkt_rx_set
 .text.radio_pkt_tx_set
                0x000000000000b550       0x10 subsys/bluetooth/controller/libsubsys__bluetooth__controller.a(radio.c.obj)
                0x000000000000b550                radio_pkt_tx_set
 .text.radio_tx_ready_delay_get
                0x000000000000b560        0x4 subsys/bluetooth/controller/libsubsys__bluetooth__controller.a(radio.c.obj)
                0x000000000000b560                radio_tx_ready_delay_get
 .text.radio_tx_chain_delay_get
                0x000000000000b564        0x4 subsys/bluetooth/controller/libsubsys__bluetooth__controller.a(radio.c.obj)
                0x000000000000b564                radio_tx_chain_delay_get
 .text.radio_rx_ready_delay_get
                0x000000000000b568        0x4 subsys/bluetooth/controller/libsubsys__bluetooth__controller.a(radio.c.obj)
                0x000000000000b568                radio_rx_ready_delay_get
 .text.radio_rx_chain_delay_get
                0x000000000000b56c        0x4 subsys/bluetooth/controller/libsubsys__bluetooth__controller.a(radio.c.obj)
                0x000000000000b56c                radio_rx_chain_delay_get
 .text.radio_rx_enable
                0x000000000000b570        0xc subsys/bluetooth/controller/libsubsys__bluetooth__controller.a(radio.c.obj)
                0x000000000000b570                radio_rx_enable
 .text.radio_tx_enable
                0x000000000000b57c        0xc subsys/bluetooth/controller/libsubsys__bluetooth__controller.a(radio.c.obj)
                0x000000000000b57c                radio_tx_enable
 .text.radio_disable
                0x000000000000b588       0x14 subsys/bluetooth/controller/libsubsys__bluetooth__controller.a(radio.c.obj)
                0x000000000000b588                radio_disable
 .text.radio_status_reset
                0x000000000000b59c       0x10 subsys/bluetooth/controller/libsubsys__bluetooth__controller.a(radio.c.obj)
                0x000000000000b59c                radio_status_reset
 .text.radio_is_ready
                0x000000000000b5ac       0x10 subsys/bluetooth/controller/libsubsys__bluetooth__controller.a(radio.c.obj)
                0x000000000000b5ac                radio_is_ready
 .text.radio_is_done
                0x000000000000b5bc       0x10 subsys/bluetooth/controller/libsubsys__bluetooth__controller.a(radio.c.obj)
                0x000000000000b5bc                radio_is_done
 .text.radio_is_idle
                0x000000000000b5cc       0x14 subsys/bluetooth/controller/libsubsys__bluetooth__controller.a(radio.c.obj)
                0x000000000000b5cc                radio_is_idle
 .text.radio_crc_configure
                0x000000000000b5e0       0x24 subsys/bluetooth/controller/libsubsys__bluetooth__controller.a(radio.c.obj)
                0x000000000000b5e0                radio_crc_configure
 .text.radio_crc_is_valid
                0x000000000000b604       0x14 subsys/bluetooth/controller/libsubsys__bluetooth__controller.a(radio.c.obj)
                0x000000000000b604                radio_crc_is_valid
 .text.radio_pkt_empty_get
                0x000000000000b618        0x8 subsys/bluetooth/controller/libsubsys__bluetooth__controller.a(radio.c.obj)
                0x000000000000b618                radio_pkt_empty_get
 .text.radio_pkt_scratch_get
                0x000000000000b620        0x8 subsys/bluetooth/controller/libsubsys__bluetooth__controller.a(radio.c.obj)
                0x000000000000b620                radio_pkt_scratch_get
 .text.radio_switch_complete_and_rx
                0x000000000000b628       0x10 subsys/bluetooth/controller/libsubsys__bluetooth__controller.a(radio.c.obj)
                0x000000000000b628                radio_switch_complete_and_rx
 .text.radio_switch_complete_and_tx
                0x000000000000b638       0x10 subsys/bluetooth/controller/libsubsys__bluetooth__controller.a(radio.c.obj)
                0x000000000000b638                radio_switch_complete_and_tx
 .text.radio_switch_complete_and_disable
                0x000000000000b648       0x10 subsys/bluetooth/controller/libsubsys__bluetooth__controller.a(radio.c.obj)
                0x000000000000b648                radio_switch_complete_and_disable
 .text.radio_rssi_measure
                0x000000000000b658       0x18 subsys/bluetooth/controller/libsubsys__bluetooth__controller.a(radio.c.obj)
                0x000000000000b658                radio_rssi_measure
 .text.radio_rssi_get
                0x000000000000b670       0x10 subsys/bluetooth/controller/libsubsys__bluetooth__controller.a(radio.c.obj)
                0x000000000000b670                radio_rssi_get
 .text.radio_rssi_status_reset
                0x000000000000b680        0xc subsys/bluetooth/controller/libsubsys__bluetooth__controller.a(radio.c.obj)
                0x000000000000b680                radio_rssi_status_reset
 .text.radio_rssi_is_ready
                0x000000000000b68c       0x10 subsys/bluetooth/controller/libsubsys__bluetooth__controller.a(radio.c.obj)
                0x000000000000b68c                radio_rssi_is_ready
 .text.radio_filter_configure
                0x000000000000b69c       0x50 subsys/bluetooth/controller/libsubsys__bluetooth__controller.a(radio.c.obj)
                0x000000000000b69c                radio_filter_configure
 .text.radio_filter_disable
                0x000000000000b6ec       0x14 subsys/bluetooth/controller/libsubsys__bluetooth__controller.a(radio.c.obj)
                0x000000000000b6ec                radio_filter_disable
 .text.radio_filter_status_reset
                0x000000000000b700        0xc subsys/bluetooth/controller/libsubsys__bluetooth__controller.a(radio.c.obj)
                0x000000000000b700                radio_filter_status_reset
 .text.radio_filter_has_match
                0x000000000000b70c       0x10 subsys/bluetooth/controller/libsubsys__bluetooth__controller.a(radio.c.obj)
                0x000000000000b70c                radio_filter_has_match
 .text.radio_filter_match_get
                0x000000000000b71c       0x10 subsys/bluetooth/controller/libsubsys__bluetooth__controller.a(radio.c.obj)
                0x000000000000b71c                radio_filter_match_get
 .text.radio_tmr_status_reset
                0x000000000000b72c       0x20 subsys/bluetooth/controller/libsubsys__bluetooth__controller.a(radio.c.obj)
                0x000000000000b72c                radio_tmr_status_reset
 .text.radio_tmr_tifs_set
                0x000000000000b74c       0x10 subsys/bluetooth/controller/libsubsys__bluetooth__controller.a(radio.c.obj)
                0x000000000000b74c                radio_tmr_tifs_set
 .text.radio_tmr_start
                0x000000000000b75c       0x94 subsys/bluetooth/controller/libsubsys__bluetooth__controller.a(radio.c.obj)
                0x000000000000b75c                radio_tmr_start
 .text.radio_tmr_stop
                0x000000000000b7f0       0x10 subsys/bluetooth/controller/libsubsys__bluetooth__controller.a(radio.c.obj)
                0x000000000000b7f0                radio_tmr_stop
 .text.radio_tmr_hcto_configure
                0x000000000000b800       0x54 subsys/bluetooth/controller/libsubsys__bluetooth__controller.a(radio.c.obj)
                0x000000000000b800                radio_tmr_hcto_configure
 .text.radio_tmr_aa_capture
                0x000000000000b854       0x44 subsys/bluetooth/controller/libsubsys__bluetooth__controller.a(radio.c.obj)
                0x000000000000b854                radio_tmr_aa_capture
 .text.radio_tmr_aa_get
                0x000000000000b898       0x10 subsys/bluetooth/controller/libsubsys__bluetooth__controller.a(radio.c.obj)
                0x000000000000b898                radio_tmr_aa_get
 .text.radio_tmr_aa_save
                0x000000000000b8a8        0xc subsys/bluetooth/controller/libsubsys__bluetooth__controller.a(radio.c.obj)
                0x000000000000b8a8                radio_tmr_aa_save
 .text.radio_tmr_aa_restore
                0x000000000000b8b4        0xc subsys/bluetooth/controller/libsubsys__bluetooth__controller.a(radio.c.obj)
                0x000000000000b8b4                radio_tmr_aa_restore
 .text.radio_tmr_ready_get
                0x000000000000b8c0       0x10 subsys/bluetooth/controller/libsubsys__bluetooth__controller.a(radio.c.obj)
                0x000000000000b8c0                radio_tmr_ready_get
 .text.radio_tmr_end_capture
                0x000000000000b8d0       0x2c subsys/bluetooth/controller/libsubsys__bluetooth__controller.a(radio.c.obj)
                0x000000000000b8d0                radio_tmr_end_capture
 .text.radio_tmr_end_get
                0x000000000000b8fc       0x10 subsys/bluetooth/controller/libsubsys__bluetooth__controller.a(radio.c.obj)
                0x000000000000b8fc                radio_tmr_end_get
 .text.radio_tmr_tifs_base_get
                0x000000000000b90c       0x10 subsys/bluetooth/controller/libsubsys__bluetooth__controller.a(radio.c.obj)
                0x000000000000b90c                radio_tmr_tifs_base_get
 .text.radio_ccm_rx_pkt_set
                0x000000000000b91c       0x7c subsys/bluetooth/controller/libsubsys__bluetooth__controller.a(radio.c.obj)
                0x000000000000b91c                radio_ccm_rx_pkt_set
 .text.radio_ccm_tx_pkt_set
                0x000000000000b998       0x58 subsys/bluetooth/controller/libsubsys__bluetooth__controller.a(radio.c.obj)
                0x000000000000b998                radio_ccm_tx_pkt_set
 .text.radio_ccm_is_done
                0x000000000000b9f0       0x44 subsys/bluetooth/controller/libsubsys__bluetooth__controller.a(radio.c.obj)
                0x000000000000b9f0                radio_ccm_is_done
 .text.radio_ccm_mic_is_valid
                0x000000000000ba34       0x14 subsys/bluetooth/controller/libsubsys__bluetooth__controller.a(radio.c.obj)
                0x000000000000ba34                radio_ccm_mic_is_valid
 .text.radio_ar_match_get
                0x000000000000ba48       0x10 subsys/bluetooth/controller/libsubsys__bluetooth__controller.a(radio.c.obj)
                0x000000000000ba48                radio_ar_match_get
 .text.radio_ar_status_reset
                0x000000000000ba58       0x18 subsys/bluetooth/controller/libsubsys__bluetooth__controller.a(radio.c.obj)
                0x000000000000ba58                radio_ar_status_reset
 .text.radio_ar_has_match
                0x000000000000ba70       0x28 subsys/bluetooth/controller/libsubsys__bluetooth__controller.a(radio.c.obj)
                0x000000000000ba70                radio_ar_has_match
 .text.mayfly_enable_cb
                0x000000000000ba98       0x1e subsys/bluetooth/controller/libsubsys__bluetooth__controller.a(mayfly.c.obj)
                0x000000000000ba98                mayfly_enable_cb
 .text.mayfly_is_enabled
                0x000000000000bab6       0x1c subsys/bluetooth/controller/libsubsys__bluetooth__controller.a(mayfly.c.obj)
                0x000000000000bab6                mayfly_is_enabled
 .text.mayfly_prio_is_equal
                0x000000000000bad2       0x1c subsys/bluetooth/controller/libsubsys__bluetooth__controller.a(mayfly.c.obj)
                0x000000000000bad2                mayfly_prio_is_equal
 *fill*         0x000000000000baee        0x2 
 .text.mayfly_pend
                0x000000000000baf0       0x24 subsys/bluetooth/controller/libsubsys__bluetooth__controller.a(mayfly.c.obj)
                0x000000000000baf0                mayfly_pend
 .text.hal_ticker_instance0_caller_id_get
                0x000000000000bb14       0x18 subsys/bluetooth/controller/libsubsys__bluetooth__controller.a(ticker.c.obj)
                0x000000000000bb14                hal_ticker_instance0_caller_id_get
 .text.hal_ticker_instance0_sched
                0x000000000000bb2c       0x74 subsys/bluetooth/controller/libsubsys__bluetooth__controller.a(ticker.c.obj)
                0x000000000000bb2c                hal_ticker_instance0_sched
 .text.hal_ticker_instance0_trigger_set
                0x000000000000bba0        0xc subsys/bluetooth/controller/libsubsys__bluetooth__controller.a(ticker.c.obj)
                0x000000000000bba0                hal_ticker_instance0_trigger_set
 .text.fixed_data_unref
                0x000000000000bbac        0x2 subsys/net/libsubsys__net.a(buf.c.obj)
 *fill*         0x000000000000bbae        0x2 
 .text.net_buf_pool_get
                0x000000000000bbb0        0xc subsys/net/libsubsys__net.a(buf.c.obj)
                0x000000000000bbb0                net_buf_pool_get
 .text.net_buf_id
                0x000000000000bbbc       0x1c subsys/net/libsubsys__net.a(buf.c.obj)
                0x000000000000bbbc                net_buf_id
 .text.fixed_data_alloc
                0x000000000000bbd8       0x2c subsys/net/libsubsys__net.a(buf.c.obj)
 .text.net_buf_alloc_len
                0x000000000000bc04       0xd0 subsys/net/libsubsys__net.a(buf.c.obj)
                0x000000000000bc04                net_buf_alloc_len
 .text.net_buf_alloc_fixed
                0x000000000000bcd4       0x10 subsys/net/libsubsys__net.a(buf.c.obj)
                0x000000000000bcd4                net_buf_alloc_fixed
 .text.net_buf_simple_reserve
                0x000000000000bce4        0x8 subsys/net/libsubsys__net.a(buf.c.obj)
                0x000000000000bce4                net_buf_simple_reserve
 .text.net_buf_put
                0x000000000000bcec       0x1c subsys/net/libsubsys__net.a(buf.c.obj)
                0x000000000000bcec                net_buf_put
 .text.net_buf_unref
                0x000000000000bd08       0x64 subsys/net/libsubsys__net.a(buf.c.obj)
                0x000000000000bd08                net_buf_unref
 .text.net_buf_ref
                0x000000000000bd6c        0x8 subsys/net/libsubsys__net.a(buf.c.obj)
                0x000000000000bd6c                net_buf_ref
 .text.net_buf_simple_add
                0x000000000000bd74        0xe subsys/net/libsubsys__net.a(buf.c.obj)
                0x000000000000bd74                net_buf_simple_add
 .text.net_buf_simple_add_mem
                0x000000000000bd82       0x14 subsys/net/libsubsys__net.a(buf.c.obj)
                0x000000000000bd82                net_buf_simple_add_mem
 .text.net_buf_simple_pull
                0x000000000000bd96       0x10 subsys/net/libsubsys__net.a(buf.c.obj)
                0x000000000000bd96                net_buf_simple_pull
 .text.net_buf_simple_pull_u8
                0x000000000000bda6       0x10 subsys/net/libsubsys__net.a(buf.c.obj)
                0x000000000000bda6                net_buf_simple_pull_u8
 .text.net_buf_simple_headroom
                0x000000000000bdb6        0x8 subsys/net/libsubsys__net.a(buf.c.obj)
                0x000000000000bdb6                net_buf_simple_headroom
 *fill*         0x000000000000bdbe        0x2 
 .text._sys_device_do_config_level
                0x000000000000bdc0       0x24 kernel/libkernel.a(device.c.obj)
                0x000000000000bdc0                _sys_device_do_config_level
 .text.device_get_binding
                0x000000000000bde4       0x50 kernel/libkernel.a(device.c.obj)
                0x000000000000bde4                device_get_binding
 .text._sys_power_save_idle_exit
                0x000000000000be34       0x18 kernel/libkernel.a(idle.c.obj)
                0x000000000000be34                _sys_power_save_idle_exit
 .text.idle     0x000000000000be4c       0x48 kernel/libkernel.a(idle.c.obj)
                0x000000000000be4c                idle
 .text._bss_zero
                0x000000000000be94       0x18 kernel/libkernel.a(init.c.obj)
                0x000000000000be94                _bss_zero
 .text._data_copy
                0x000000000000beac       0x1c kernel/libkernel.a(init.c.obj)
                0x000000000000beac                _data_copy
 .text._main    0x000000000000bec8       0x38 kernel/libkernel.a(init.c.obj)
 .text._Cstart  0x000000000000bf00      0x104 kernel/libkernel.a(init.c.obj)
                0x000000000000bf00                _Cstart
 .text.get_bit_ptr
                0x000000000000c004       0x2a kernel/libkernel.a(mempool.c.obj)
 .text.set_free_bit
                0x000000000000c02e       0x16 kernel/libkernel.a(mempool.c.obj)
 .text.init_static_pools
                0x000000000000c044       0xa4 kernel/libkernel.a(mempool.c.obj)
                0x000000000000c044                init_static_pools
 .text.adjust_owner_prio.isra.7
                0x000000000000c0e8       0x2c kernel/libkernel.a(mutex.c.obj)
 .text._impl_k_mutex_lock
                0x000000000000c114       0xc4 kernel/libkernel.a(mutex.c.obj)
                0x000000000000c114                _impl_k_mutex_lock
 .text._impl_k_mutex_unlock
                0x000000000000c1d8       0xe0 kernel/libkernel.a(mutex.c.obj)
                0x000000000000c1d8                _impl_k_mutex_unlock
 .text.k_queue_init
                0x000000000000c2b8       0x10 kernel/libkernel.a(queue.c.obj)
                0x000000000000c2b8                k_queue_init
 .text.k_queue_insert
                0x000000000000c2c8       0x56 kernel/libkernel.a(queue.c.obj)
                0x000000000000c2c8                k_queue_insert
 .text.k_queue_append
                0x000000000000c31e        0xc kernel/libkernel.a(queue.c.obj)
                0x000000000000c31e                k_queue_append
 .text.k_queue_prepend
                0x000000000000c32a        0xc kernel/libkernel.a(queue.c.obj)
                0x000000000000c32a                k_queue_prepend
 .text.k_queue_append_list
                0x000000000000c336       0x36 kernel/libkernel.a(queue.c.obj)
                0x000000000000c336                k_queue_append_list
 .text.k_queue_get
                0x000000000000c36c       0x8e kernel/libkernel.a(queue.c.obj)
                0x000000000000c36c                k_queue_get
 *fill*         0x000000000000c3fa        0x2 
 .text._add_thread_to_ready_q
                0x000000000000c3fc       0x50 kernel/libkernel.a(sched.c.obj)
                0x000000000000c3fc                _add_thread_to_ready_q
 .text._ready_thread
                0x000000000000c44c       0x1e kernel/libkernel.a(sched.c.obj)
 *fill*         0x000000000000c46a        0x2 
 .text._add_timeout
                0x000000000000c46c       0xa0 kernel/libkernel.a(sched.c.obj)
 .text._remove_thread_from_ready_q
                0x000000000000c50c       0x5c kernel/libkernel.a(sched.c.obj)
                0x000000000000c50c                _remove_thread_from_ready_q
 .text._pend_thread
                0x000000000000c568       0x60 kernel/libkernel.a(sched.c.obj)
                0x000000000000c568                _pend_thread
 .text._pend_current_thread
                0x000000000000c5c8       0x20 kernel/libkernel.a(sched.c.obj)
                0x000000000000c5c8                _pend_current_thread
 .text.__must_switch_threads
                0x000000000000c5e8       0x24 kernel/libkernel.a(sched.c.obj)
                0x000000000000c5e8                __must_switch_threads
 .text._reschedule_threads
                0x000000000000c60c       0x34 kernel/libkernel.a(sched.c.obj)
                0x000000000000c60c                _reschedule_threads
 .text.k_sched_unlock
                0x000000000000c640       0x1c kernel/libkernel.a(sched.c.obj)
                0x000000000000c640                k_sched_unlock
 .text._move_thread_to_end_of_prio_q
                0x000000000000c65c       0x4c kernel/libkernel.a(sched.c.obj)
                0x000000000000c65c                _move_thread_to_end_of_prio_q
 .text._impl_k_yield
                0x000000000000c6a8       0x38 kernel/libkernel.a(sched.c.obj)
                0x000000000000c6a8                _impl_k_yield
 .text._impl_k_sleep
                0x000000000000c6e0       0x48 kernel/libkernel.a(sched.c.obj)
                0x000000000000c6e0                _impl_k_sleep
 .text._impl_k_current_get
                0x000000000000c728        0xc kernel/libkernel.a(sched.c.obj)
                0x000000000000c728                _impl_k_current_get
 .text._is_thread_time_slicing
                0x000000000000c734       0x50 kernel/libkernel.a(sched.c.obj)
                0x000000000000c734                _is_thread_time_slicing
 .text._update_time_slice_before_swap
                0x000000000000c784        0xc kernel/libkernel.a(sched.c.obj)
                0x000000000000c784                _update_time_slice_before_swap
 .text._unpend_first_thread
                0x000000000000c790       0x4c kernel/libkernel.a(sem.c.obj)
 .text._impl_k_sem_init
                0x000000000000c7dc       0x12 kernel/libkernel.a(sem.c.obj)
                0x000000000000c7dc                _impl_k_sem_init
 *fill*         0x000000000000c7ee        0x2 
 .text._impl_k_sem_give
                0x000000000000c7f0       0xb4 kernel/libkernel.a(sem.c.obj)
                0x000000000000c7f0                _impl_k_sem_give
 .text._impl_k_sem_take
                0x000000000000c8a4       0x3c kernel/libkernel.a(sem.c.obj)
                0x000000000000c8a4                _impl_k_sem_take
 .text._impl_k_uptime_get_32
                0x000000000000c8e0       0x10 kernel/libkernel.a(sys_clock.c.obj)
                0x000000000000c8e0                _impl_k_uptime_get_32
 .text._tick_get
                0x000000000000c8f0       0x18 kernel/libkernel.a(sys_clock.c.obj)
                0x000000000000c8f0                sys_tick_get
                0x000000000000c8f0                _tick_get
 .text._impl_k_uptime_get
                0x000000000000c908       0x10 kernel/libkernel.a(sys_clock.c.obj)
                0x000000000000c908                _impl_k_uptime_get
 .text._nano_sys_clock_tick_announce
                0x000000000000c918      0x1a4 kernel/libkernel.a(sys_clock.c.obj)
                0x000000000000c918                _nano_sys_clock_tick_announce
 .text.k_sys_work_q_init
                0x000000000000cabc       0x20 kernel/libkernel.a(system_work_q.c.obj)
 .text._is_thread_ready
                0x000000000000cadc       0x16 kernel/libkernel.a(thread.c.obj)
 *fill*         0x000000000000caf2        0x2 
 .text._abort_timeout
                0x000000000000caf4       0x34 kernel/libkernel.a(thread.c.obj)
 .text.schedule_new_thread.part.13
                0x000000000000cb28       0x74 kernel/libkernel.a(thread.c.obj)
 .text.k_is_in_isr
                0x000000000000cb9c       0x14 kernel/libkernel.a(thread.c.obj)
                0x000000000000cb9c                k_is_in_isr
 .text._is_thread_essential
                0x000000000000cbb0       0x10 kernel/libkernel.a(thread.c.obj)
                0x000000000000cbb0                _is_thread_essential
 .text._thread_entry
                0x000000000000cbc0       0x14 kernel/libkernel.a(thread.c.obj)
                0x000000000000cbc0                _thread_entry
 .text._impl_k_thread_start
                0x000000000000cbd4       0x50 kernel/libkernel.a(thread.c.obj)
                0x000000000000cbd4                _impl_k_thread_start
 .text._setup_new_thread
                0x000000000000cc24       0x20 kernel/libkernel.a(thread.c.obj)
                0x000000000000cc24                _setup_new_thread
 .text._impl_k_thread_create
                0x000000000000cc44       0x40 kernel/libkernel.a(thread.c.obj)
                0x000000000000cc44                _impl_k_thread_create
 .text._k_thread_single_abort
                0x000000000000cc84       0x4e kernel/libkernel.a(thread.c.obj)
                0x000000000000cc84                _k_thread_single_abort
 *fill*         0x000000000000ccd2        0x2 
 .text._init_static_threads
                0x000000000000ccd4       0x80 kernel/libkernel.a(thread.c.obj)
                0x000000000000ccd4                _init_static_threads
 .text._init_thread_base
                0x000000000000cd54       0x18 kernel/libkernel.a(thread.c.obj)
                0x000000000000cd54                _init_thread_base
 .text.work_q_main
                0x000000000000cd6c       0x2e kernel/libkernel.a(work_q.c.obj)
 *fill*         0x000000000000cd9a        0x2 
 .text.k_work_q_start
                0x000000000000cd9c       0x34 kernel/libkernel.a(work_q.c.obj)
                0x000000000000cd9c                k_work_q_start
 .text._ready_thread
                0x000000000000cdd0       0x1e kernel/libkernel.a(timer.c.obj)
 .text._unpend_thread
                0x000000000000cdee       0x14 kernel/libkernel.a(timer.c.obj)
 *fill*         0x000000000000ce02        0x2 
 .text._abort_timeout
                0x000000000000ce04       0x34 kernel/libkernel.a(timer.c.obj)
 .text._add_timeout.constprop.9
                0x000000000000ce38       0x74 kernel/libkernel.a(timer.c.obj)
 .text._timer_expiration_handler
                0x000000000000ceac       0x5a kernel/libkernel.a(timer.c.obj)
                0x000000000000ceac                _timer_expiration_handler
 .text._impl_k_timer_start
                0x000000000000cf06       0x3c kernel/libkernel.a(timer.c.obj)
                0x000000000000cf06                _impl_k_timer_start
 *fill*         0x000000000000cf42        0x2 
 .text._impl_k_timer_stop
                0x000000000000cf44       0x88 kernel/libkernel.a(timer.c.obj)
                0x000000000000cf44                _impl_k_timer_stop
 .text.atomic_get
                0x000000000000cfcc        0x4 kernel/libkernel.a(atomic_c.c.obj)
                0x000000000000cfcc                atomic_get
 .text.atomic_set
                0x000000000000cfd0       0x14 kernel/libkernel.a(atomic_c.c.obj)
                0x000000000000cfd0                atomic_set
 .text.atomic_or
                0x000000000000cfe4       0x16 kernel/libkernel.a(atomic_c.c.obj)
                0x000000000000cfe4                atomic_or
 .text.atomic_and
                0x000000000000cffa       0x16 kernel/libkernel.a(atomic_c.c.obj)
                0x000000000000cffa                atomic_and
 .text.sys_dlist_remove
                0x000000000000d010        0xc kernel/libkernel.a(poll.c.obj)
 .text.clear_event_registrations
                0x000000000000d01c       0x40 kernel/libkernel.a(poll.c.obj)
 .text._signal_poll_event
                0x000000000000d05c       0xc4 kernel/libkernel.a(poll.c.obj)
 .text.add_event
                0x000000000000d120       0x5c kernel/libkernel.a(poll.c.obj)
 .text.k_poll_event_init
                0x000000000000d17c       0x2e kernel/libkernel.a(poll.c.obj)
                0x000000000000d17c                k_poll_event_init
 *fill*         0x000000000000d1aa        0x2 
 .text.k_poll   0x000000000000d1ac      0x12c kernel/libkernel.a(poll.c.obj)
                0x000000000000d1ac                k_poll
 .text._handle_obj_poll_events
                0x000000000000d2d8       0x26 kernel/libkernel.a(poll.c.obj)
                0x000000000000d2d8                _handle_obj_poll_events
 .text._OffsetAbsSyms
                0x000000000000d2fe        0x2 CMakeFiles/offsets.dir/arch/arm/core/offsets/offsets.c.obj
                0x000000000000d2fe                _OffsetAbsSyms
 *(.gnu.linkonce.t.*)
                0x000000000000d300                _image_text_end = .

.glue_7         0x000000000000d300        0x0
 .glue_7        0x000000000000d300        0x0 linker stubs

.glue_7t        0x000000000000d300        0x0
 .glue_7t       0x000000000000d300        0x0 linker stubs

.vfp11_veneer   0x000000000000d300        0x0
 .vfp11_veneer  0x000000000000d300        0x0 linker stubs

.v4_bx          0x000000000000d300        0x0
 .v4_bx         0x000000000000d300        0x0 linker stubs

.iplt           0x000000000000d300        0x0
 .iplt          0x000000000000d300        0x0 CMakeFiles/kernel_elf.dir/isr_tables.c.obj

.igot.plt       0x000000000000d300        0x0
 .igot.plt      0x000000000000d300        0x0 CMakeFiles/kernel_elf.dir/isr_tables.c.obj

.ARM.exidx      0x000000000000d300        0x8
                0x000000000000d300                __exidx_start = .
 *(.ARM.exidx* gnu.linkonce.armexidx.*)
 .ARM.exidx     0x000000000000d300        0x8 /opt/zephyr-sdk/sysroots/armv5-zephyr-eabi/usr/lib/arm-zephyr-eabi/6.2.0/armv6-m/libgcc.a(_udivmoddi4.o)
                0x000000000000d308                __exidx_end = .
                0x000000000000d308                _image_rodata_start = .

devconfig       0x000000000000d308       0xb4
                0x000000000000d308                __devconfig_start = .
 *(.devconfig.*)
 .devconfig.init
                0x000000000000d308        0xc libzephyr.a(soc.c.obj)
 .devconfig.init
                0x000000000000d314        0xc libzephyr.a(uart_console.c.obj)
 .devconfig.init
                0x000000000000d320        0xc libzephyr.a(mb_display.c.obj)
 .devconfig.init
                0x000000000000d32c       0x18 libzephyr.a(nrf5_power_clock.c.obj)
 .devconfig.init
                0x000000000000d344        0xc libzephyr.a(gpio_nrf5.c.obj)
 .devconfig.init
                0x000000000000d350        0xc libzephyr.a(i2c_gpio.c.obj)
 .devconfig.init
                0x000000000000d35c        0xc libzephyr.a(i2c_nrf5.c.obj)
 .devconfig.init
                0x000000000000d368        0xc libzephyr.a(pwm_nrf5_sw.c.obj)
 .devconfig.init
                0x000000000000d374        0xc libzephyr.a(temp_nrf5.c.obj)
 .devconfig.init
                0x000000000000d380        0xc libzephyr.a(uart_nrf5.c.obj)
 .devconfig.init
                0x000000000000d38c        0xc libzephyr.a(sys_clock_init.c.obj)
 .devconfig.init
                0x000000000000d398        0xc subsys/bluetooth/controller/libsubsys__bluetooth__controller.a(hci_driver.c.obj)
 .devconfig.init
                0x000000000000d3a4        0xc kernel/libkernel.a(mempool.c.obj)
 .devconfig.init
                0x000000000000d3b0        0xc kernel/libkernel.a(system_work_q.c.obj)
 *(SORT(.devconfig*))
                0x000000000000d3bc                __devconfig_end = .

net_l2          0x000000000000d3bc        0x0
                0x000000000000d3bc                __net_l2_start = .
 *(.net_l2.init)
 *(SORT(.net_l2.init*))
                0x000000000000d3bc                __net_l2_end = .

rodata          0x000000000000d3bc      0x778
 *(.rodata)
 .rodata        0x000000000000d3bc        0x7 subsys/bluetooth/host/libsubsys__bluetooth__host.a(hci_core.c.obj)
 .rodata        0x000000000000d3c3       0x1a subsys/bluetooth/controller/libsubsys__bluetooth__controller.a(ctrl.c.obj)
 *fill*         0x000000000000d3dd        0x3 
 .rodata        0x000000000000d3e0       0x40 /opt/zephyr-sdk/sysroots/armv5-zephyr-eabi/usr/lib/arm-zephyr-eabi/6.2.0/armv6-m/libgcc.a(divdf3.o)
 *(.rodata.*)
 .rodata._prf.str1.1
                0x000000000000d420        0xb ../libapp.a(prf.c.obj)
 .rodata.shifts.3783
                0x000000000000d42b        0x3 ../libapp.a(prf.c.obj)
 .rodata.button_pressed.str1.1
                0x000000000000d42e       0x16 ../libapp.a(main.c.obj)
 .rodata.main.str1.1
                0x000000000000d444       0xb4 ../libapp.a(main.c.obj)
 .rodata.s1_display.str1.1
                0x000000000000d4f8        0xf ../libapp.a(main.c.obj)
 .rodata.s2_accelerometer.str1.1
                0x000000000000d507        0xf ../libapp.a(main.c.obj)
                                          0x2 (size before relaxing)
 .rodata.s3_compass.str1.1
                0x000000000000d507        0x2 ../libapp.a(main.c.obj)
 .rodata.s4_temperature.str1.1
                0x000000000000d509       0x1d ../libapp.a(main.c.obj)
 .rodata.s5_bluetooth.str1.1
                0x000000000000d526        0x2 ../libapp.a(main.c.obj)
 .rodata.str1.1
                0x000000000000d528        0x2 libzephyr.a(soc.c.obj)
                                          0x1 (size before relaxing)
 .rodata._Fault.str1.1
                0x000000000000d528       0xa4 libzephyr.a(fault.c.obj)
 .rodata._NanoFatalErrorHandler.str1.1
                0x000000000000d5cc       0xba libzephyr.a(fatal.c.obj)
 .rodata._SysFatalErrorHandler.str1.1
                0x000000000000d686       0x5a libzephyr.a(sys_fatal_error_handler.c.obj)
 .rodata.str1.1
                0x000000000000d6e0        0x1 libzephyr.a(uart_console.c.obj)
 .rodata.uart_console_init.str1.1
                0x000000000000d6e0        0x7 libzephyr.a(uart_console.c.obj)
 .rodata.map    0x000000000000d6e7       0x1b libzephyr.a(mb_display.c.obj)
 .rodata.mb_display_init.str1.1
                0x000000000000d702        0x7 libzephyr.a(mb_display.c.obj)
 .rodata.str1.1
                0x000000000000d702        0x1 libzephyr.a(mb_display.c.obj)
 .rodata.mb_font
                0x000000000000d702      0x1db libzephyr.a(mb_font.c.obj)
                0x000000000000d702                mb_font
 *fill*         0x000000000000d8dd        0x3 
 .rodata._k32src_clock_control_api
                0x000000000000d8e0        0xc libzephyr.a(nrf5_power_clock.c.obj)
 .rodata._m16src_clock_control_api
                0x000000000000d8ec        0xc libzephyr.a(nrf5_power_clock.c.obj)
 .rodata.str1.1
                0x000000000000d8f8       0x16 libzephyr.a(nrf5_power_clock.c.obj)
 *fill*         0x000000000000d90e        0x2 
 .rodata.drive_strength.7472
                0x000000000000d910       0x40 libzephyr.a(gpio_nrf5.c.obj)
 .rodata.gpio_nrf5_P0_cfg
                0x000000000000d950        0xc libzephyr.a(gpio_nrf5.c.obj)
 .rodata.gpio_nrf5_drv_api_funcs
                0x000000000000d95c       0x1c libzephyr.a(gpio_nrf5.c.obj)
 .rodata.str1.1
                0x000000000000d978        0x7 libzephyr.a(gpio_nrf5.c.obj)
 .rodata.delays_fast
                0x000000000000d978        0x8 libzephyr.a(i2c_bitbang.c.obj)
 .rodata.delays_standard
                0x000000000000d980        0x8 libzephyr.a(i2c_bitbang.c.obj)
 .rodata.i2c_gpio_dev_cfg_0
                0x000000000000d988        0x8 libzephyr.a(i2c_gpio.c.obj)
 .rodata.io_fns
                0x000000000000d990        0xc libzephyr.a(i2c_gpio.c.obj)
 .rodata.str1.1
                0x000000000000d99c        0x6 libzephyr.a(i2c_gpio.c.obj)
                                          0x7 (size before relaxing)
 *fill*         0x000000000000d9a2        0x2 
 .rodata.i2c_nrf5_config_0
                0x000000000000d9a4       0x14 libzephyr.a(i2c_nrf5.c.obj)
 .rodata.i2c_nrf5_driver_api
                0x000000000000d9b8        0x8 libzephyr.a(i2c_nrf5.c.obj)
 .rodata.i2c_nrf5_init.str1.1
                0x000000000000d9c0        0x7 libzephyr.a(i2c_nrf5.c.obj)
 .rodata.str1.1
                0x000000000000d9c0        0x6 libzephyr.a(i2c_nrf5.c.obj)
 .rodata.pwm_nrf5_sw_0_config
                0x000000000000d9c0        0x8 libzephyr.a(pwm_nrf5_sw.c.obj)
 .rodata.pwm_nrf5_sw_drv_api_funcs
                0x000000000000d9c8        0x8 libzephyr.a(pwm_nrf5_sw.c.obj)
 .rodata.str1.1
                0x000000000000d9d0        0x6 libzephyr.a(pwm_nrf5_sw.c.obj)
 .rodata.str1.1
                0x000000000000d9d0        0x7 libzephyr.a(temp_nrf5.c.obj)
 .rodata.temp_nrf5_driver_api
                0x000000000000d9d0       0x10 libzephyr.a(temp_nrf5.c.obj)
 .rodata.temp_nrf5_init.str1.1
                0x000000000000d9e0        0xb libzephyr.a(temp_nrf5.c.obj)
 .rodata.str1.1
                0x000000000000d9e0        0x7 libzephyr.a(uart_nrf5.c.obj)
 .rodata.uart_nrf5_dev_cfg_0
                0x000000000000d9e0        0x8 libzephyr.a(uart_nrf5.c.obj)
 .rodata.uart_nrf5_driver_api
                0x000000000000d9e8        0xc libzephyr.a(uart_nrf5.c.obj)
 .rodata.uart_nrf5_init.str1.1
                0x000000000000d9f4        0x7 libzephyr.a(uart_nrf5.c.obj)
 .rodata.str1.1
                0x000000000000d9f4        0xa libzephyr.a(sys_clock_init.c.obj)
 .rodata._sys_clock_driver_init.str1.1
                0x000000000000d9fe        0xb libzephyr.a(nrf_rtc_timer.c.obj)
 *fill*         0x000000000000d9fe        0x2 
 .rodata.net_buf_fixed_alloc_hci_cmd_pool
                0x000000000000da00        0x8 subsys/bluetooth/host/libsubsys__bluetooth__host.a(hci_core.c.obj)
 .rodata.net_buf_fixed_alloc_hci_rx_pool
                0x000000000000da08        0x8 subsys/bluetooth/host/libsubsys__bluetooth__host.a(hci_core.c.obj)
 .rodata.net_buf_fixed_hci_cmd_pool
                0x000000000000da10        0x8 subsys/bluetooth/host/libsubsys__bluetooth__host.a(hci_core.c.obj)
 .rodata.net_buf_fixed_hci_rx_pool
                0x000000000000da18        0x8 subsys/bluetooth/host/libsubsys__bluetooth__host.a(hci_core.c.obj)
 .rodata.drv    0x000000000000da20       0x10 subsys/bluetooth/controller/libsubsys__bluetooth__controller.a(hci_driver.c.obj)
 .rodata.str1.1
                0x000000000000da30        0xb subsys/bluetooth/controller/libsubsys__bluetooth__controller.a(hci_driver.c.obj)
                                          0xc (size before relaxing)
 .rodata.bt_addr_le_to_str.constprop.42.str1.1
                0x000000000000da3b       0x4c subsys/bluetooth/controller/libsubsys__bluetooth__controller.a(hci.c.obj)
 .rodata.hci_cmd_handle.str1.1
                0x000000000000da87       0x27 subsys/bluetooth/controller/libsubsys__bluetooth__controller.a(hci.c.obj)
 .rodata.gc_lookup_ppm
                0x000000000000daae       0x10 subsys/bluetooth/controller/libsubsys__bluetooth__controller.a(ctrl.c.obj)
 .rodata.ll_init.str1.1
                0x000000000000dabe       0x16 subsys/bluetooth/controller/libsubsys__bluetooth__controller.a(ll.c.obj)
 .rodata.caller_id_lut
                0x000000000000dabe        0x4 subsys/bluetooth/controller/libsubsys__bluetooth__controller.a(ticker.c.obj)
 *fill*         0x000000000000dac2        0x2 
 .rodata.net_buf_fixed_cb
                0x000000000000dac4        0xc subsys/net/libsubsys__net.a(buf.c.obj)
                0x000000000000dac4                net_buf_fixed_cb
 .rodata.config_levels
                0x000000000000dad0       0x14 kernel/libkernel.a(device.c.obj)
 .rodata._k_neg_eagain
                0x000000000000dae4        0x4 kernel/libkernel.a(errno.c.obj)
                0x000000000000dae4                _k_neg_eagain
 .rodata._idle_thread
                0x000000000000dae8        0x4 kernel/libkernel.a(init.c.obj)
                0x000000000000dae8                _idle_thread
 .rodata._main.str1.1
                0x000000000000daec       0x48 kernel/libkernel.a(init.c.obj)
 .rodata.str1.1
                0x000000000000db34        0x1 kernel/libkernel.a(mempool.c.obj)
 .rodata.str1.1
                0x000000000000db34        0x1 kernel/libkernel.a(system_work_q.c.obj)
 *(.gnu.linkonce.r.*)
                0x000000000000db38                . = ALIGN (0x4)
                0x000000000000db38                _image_rodata_end = .
                0x000000000000db38                _image_rom_end = .

.rel.dyn        0x000000000000db34        0x0
 .rel.iplt      0x000000000000db34        0x0 CMakeFiles/kernel_elf.dir/isr_tables.c.obj

bss             0x0000000020000000      0xe60
                0x0000000020000000                . = ALIGN (0x4)
                0x0000000020000000                __bss_start = .
                0x0000000020000000                _image_ram_start = .
                0x0000000020000000                __kernel_ram_start = .
 *(.bss)
 *(.bss.*)
 .bss.button_cb.7604
                0x0000000020000000        0xc ../libapp.a(main.c.obj)
 .bss.current_event
                0x000000002000000c        0x1 ../libapp.a(main.c.obj)
 .bss.current_state
                0x000000002000000d        0x1 ../libapp.a(main.c.obj)
 .bss.current_temperature
                0x000000002000000e        0x1 ../libapp.a(main.c.obj)
 *fill*         0x000000002000000f        0x1 
 .bss.gpio      0x0000000020000010        0x4 ../libapp.a(main.c.obj)
 .bss.temp_dev  0x0000000020000014        0x4 ../libapp.a(main.c.obj)
 .bss.temp_value
                0x0000000020000018        0x8 ../libapp.a(main.c.obj)
 .bss.uart_console_dev
                0x0000000020000020        0x4 libzephyr.a(uart_console.c.obj)
 .bss.k32src_initialized
                0x0000000020000024        0x1 libzephyr.a(nrf5_power_clock.c.obj)
 .bss.m16src_grd
                0x0000000020000025        0x1 libzephyr.a(nrf5_power_clock.c.obj)
 .bss.m16src_ref
                0x0000000020000026        0x1 libzephyr.a(nrf5_power_clock.c.obj)
 *fill*         0x0000000020000027        0x1 
 .bss.gpio_data_P0
                0x0000000020000028       0x10 libzephyr.a(gpio_nrf5.c.obj)
 .bss.i2c_gpio_dev_data_0
                0x0000000020000038       0x14 libzephyr.a(i2c_gpio.c.obj)
 .bss.pwm_nrf5_sw_0_data
                0x000000002000004c       0x1c libzephyr.a(pwm_nrf5_sw.c.obj)
 .bss.temp_nrf5_driver
                0x0000000020000068       0x20 libzephyr.a(temp_nrf5.c.obj)
 .bss.expected_sys_ticks
                0x0000000020000088        0x4 libzephyr.a(nrf_rtc_timer.c.obj)
 .bss.rtc_past  0x000000002000008c        0x4 libzephyr.a(nrf_rtc_timer.c.obj)
 .bss.cmd_data  0x0000000020000090       0x10 subsys/bluetooth/host/libsubsys__bluetooth__host.a(hci_core.c.obj)
 .bss.dh_key_cb
                0x00000000200000a0        0x4 subsys/bluetooth/host/libsubsys__bluetooth__host.a(hci_core.c.obj)
 .bss.pub_key   0x00000000200000a4       0x40 subsys/bluetooth/host/libsubsys__bluetooth__host.a(hci_core.c.obj)
 .bss.pub_key_cb
                0x00000000200000e4        0x4 subsys/bluetooth/host/libsubsys__bluetooth__host.a(hci_core.c.obj)
 .bss.ready_cb  0x00000000200000e8        0x4 subsys/bluetooth/host/libsubsys__bluetooth__host.a(hci_core.c.obj)
 .bss.scan_dev_found_cb
                0x00000000200000ec        0x4 subsys/bluetooth/host/libsubsys__bluetooth__host.a(hci_core.c.obj)
 .bss.mfl       0x00000000200000f0       0x80 subsys/bluetooth/controller/libsubsys__bluetooth__controller.a(mayfly.c.obj)
 .bss.mft       0x0000000020000170       0xc0 subsys/bluetooth/controller/libsubsys__bluetooth__controller.a(mayfly.c.obj)
 .bss._instance
                0x0000000020000230       0x58 subsys/bluetooth/controller/libsubsys__bluetooth__controller.a(ticker.c.obj)
 .bss.pub_addr  0x0000000020000288        0x6 subsys/bluetooth/controller/libsubsys__bluetooth__controller.a(ll_addr.c.obj)
 .bss.rnd_addr  0x000000002000028e        0x6 subsys/bluetooth/controller/libsubsys__bluetooth__controller.a(ll_addr.c.obj)
 .bss._opcode   0x0000000020000294        0x2 subsys/bluetooth/controller/libsubsys__bluetooth__controller.a(hci.c.obj)
 *fill*         0x0000000020000296        0x2 
 .bss._radio    0x0000000020000298      0x180 subsys/bluetooth/controller/libsubsys__bluetooth__controller.a(ctrl.c.obj)
 .bss.link_inact.10212
                0x0000000020000418        0x8 subsys/bluetooth/controller/libsubsys__bluetooth__controller.a(ctrl.c.obj)
 .bss.link_inact.10527
                0x0000000020000420        0x8 subsys/bluetooth/controller/libsubsys__bluetooth__controller.a(ctrl.c.obj)
 .bss.link_radio.10226
                0x0000000020000428        0x8 subsys/bluetooth/controller/libsubsys__bluetooth__controller.a(ctrl.c.obj)
 .bss.link_radio.10535
                0x0000000020000430        0x8 subsys/bluetooth/controller/libsubsys__bluetooth__controller.a(ctrl.c.obj)
 .bss.link_xtal.10219
                0x0000000020000438        0x8 subsys/bluetooth/controller/libsubsys__bluetooth__controller.a(ctrl.c.obj)
 .bss.link_xtal.10531
                0x0000000020000440        0x8 subsys/bluetooth/controller/libsubsys__bluetooth__controller.a(ctrl.c.obj)
 .bss.s_active.9903
                0x0000000020000448        0x1 subsys/bluetooth/controller/libsubsys__bluetooth__controller.a(ctrl.c.obj)
 *fill*         0x0000000020000449        0x3 
 .bss.s_link.10066
                0x000000002000044c        0x8 subsys/bluetooth/controller/libsubsys__bluetooth__controller.a(ctrl.c.obj)
 .bss.s_link.10086
                0x0000000020000454        0x8 subsys/bluetooth/controller/libsubsys__bluetooth__controller.a(ctrl.c.obj)
 .bss.s_link.10232
                0x000000002000045c        0x8 subsys/bluetooth/controller/libsubsys__bluetooth__controller.a(ctrl.c.obj)
 .bss.s_link.10280
                0x0000000020000464        0x8 subsys/bluetooth/controller/libsubsys__bluetooth__controller.a(ctrl.c.obj)
 .bss.s_link.9910
                0x000000002000046c        0x8 subsys/bluetooth/controller/libsubsys__bluetooth__controller.a(ctrl.c.obj)
 .bss.s_link.9922
                0x0000000020000474        0x8 subsys/bluetooth/controller/libsubsys__bluetooth__controller.a(ctrl.c.obj)
 .bss.s_link.9934
                0x000000002000047c        0x8 subsys/bluetooth/controller/libsubsys__bluetooth__controller.a(ctrl.c.obj)
 .bss.s_link.9945
                0x0000000020000484        0x8 subsys/bluetooth/controller/libsubsys__bluetooth__controller.a(ctrl.c.obj)
 .bss.s_link.9948
                0x000000002000048c       0x10 subsys/bluetooth/controller/libsubsys__bluetooth__controller.a(ctrl.c.obj)
 .bss.s_xtal_retained.9944
                0x000000002000049c        0x1 subsys/bluetooth/controller/libsubsys__bluetooth__controller.a(ctrl.c.obj)
 *fill*         0x000000002000049d        0x3 
 .bss._radio    0x00000000200004a0      0x1f0 subsys/bluetooth/controller/libsubsys__bluetooth__controller.a(ll.c.obj)
 .bss._ticker_nodes
                0x0000000020000690      0x118 subsys/bluetooth/controller/libsubsys__bluetooth__controller.a(ll.c.obj)
 .bss._ticker_user_ops
                0x00000000200007a8      0x270 subsys/bluetooth/controller/libsubsys__bluetooth__controller.a(ll.c.obj)
 .bss._ticker_users
                0x0000000020000a18       0x20 subsys/bluetooth/controller/libsubsys__bluetooth__controller.a(ll.c.obj)
 .bss.rand_context
                0x0000000020000a38        0x9 subsys/bluetooth/controller/libsubsys__bluetooth__controller.a(ll.c.obj)
 *fill*         0x0000000020000a41        0x3 
 .bss.rand_isr_context
                0x0000000020000a44       0x11 subsys/bluetooth/controller/libsubsys__bluetooth__controller.a(ll.c.obj)
 *fill*         0x0000000020000a55        0x3 
 .bss.sem_recv  0x0000000020000a58        0x4 subsys/bluetooth/controller/libsubsys__bluetooth__controller.a(ll.c.obj)
 .bss.ll_adv    0x0000000020000a5c        0x8 subsys/bluetooth/controller/libsubsys__bluetooth__controller.a(ll_adv.c.obj)
 .bss.wl_filter
                0x0000000020000a64       0x32 subsys/bluetooth/controller/libsubsys__bluetooth__controller.a(ll_filter.c.obj)
 .bss._refcount
                0x0000000020000a96        0x1 subsys/bluetooth/controller/libsubsys__bluetooth__controller.a(cntr.c.obj)
 *fill*         0x0000000020000a97        0x1 
 .bss.rng_isr   0x0000000020000a98        0x4 subsys/bluetooth/controller/libsubsys__bluetooth__controller.a(rand.c.obj)
 .bss.rng_thr   0x0000000020000a9c        0x4 subsys/bluetooth/controller/libsubsys__bluetooth__controller.a(rand.c.obj)
 .bss._ccm_scratch
                0x0000000020000aa0       0x2b subsys/bluetooth/controller/libsubsys__bluetooth__controller.a(radio.c.obj)
 *fill*         0x0000000020000acb        0x1 
 .bss._pkt_empty
                0x0000000020000acc        0x3 subsys/bluetooth/controller/libsubsys__bluetooth__controller.a(radio.c.obj)
 *fill*         0x0000000020000acf        0x1 
 .bss._pkt_scratch
                0x0000000020000ad0       0x27 subsys/bluetooth/controller/libsubsys__bluetooth__controller.a(radio.c.obj)
 *fill*         0x0000000020000af7        0x1 
 .bss.radio_tmr_aa
                0x0000000020000af8        0x4 subsys/bluetooth/controller/libsubsys__bluetooth__controller.a(radio.c.obj)
 .bss.sfp_radio_isr
                0x0000000020000afc        0x4 subsys/bluetooth/controller/libsubsys__bluetooth__controller.a(radio.c.obj)
 .bss.link.7389
                0x0000000020000b00        0x8 subsys/bluetooth/controller/libsubsys__bluetooth__controller.a(ticker.c.obj)
 .bss.link.7396
                0x0000000020000b08        0x8 subsys/bluetooth/controller/libsubsys__bluetooth__controller.a(ticker.c.obj)
 .bss.link.7402
                0x0000000020000b10        0x8 subsys/bluetooth/controller/libsubsys__bluetooth__controller.a(ticker.c.obj)
 .bss.link.7406
                0x0000000020000b18        0x8 subsys/bluetooth/controller/libsubsys__bluetooth__controller.a(ticker.c.obj)
 .bss.link.7411
                0x0000000020000b20        0x8 subsys/bluetooth/controller/libsubsys__bluetooth__controller.a(ticker.c.obj)
 .bss._idle_thread_s
                0x0000000020000b28       0x60 kernel/libkernel.a(init.c.obj)
 .bss._main_thread_s
                0x0000000020000b88       0x60 kernel/libkernel.a(init.c.obj)
 .bss._kernel   0x0000000020000be8      0x124 kernel/libkernel.a(sched.c.obj)
                0x0000000020000be8                _kernel
 .bss._time_slice_duration
                0x0000000020000d0c        0x4 kernel/libkernel.a(sys_clock.c.obj)
                0x0000000020000d0c                _time_slice_duration
 .bss._time_slice_prio_ceiling
                0x0000000020000d10        0x4 kernel/libkernel.a(sys_clock.c.obj)
                0x0000000020000d10                _time_slice_prio_ceiling
 *(COMMON)
 COMMON         0x0000000020000d14        0x4 subsys/bluetooth/host/libsubsys__bluetooth__host.a(hci_core.c.obj)
                0x0000000020000d14                bt_storage
 COMMON         0x0000000020000d18       0xc0 subsys/bluetooth/controller/libsubsys__bluetooth__controller.a(hci_driver.c.obj)
                0x0000000020000d18                recv_thread_data
                0x0000000020000d78                prio_recv_thread_data
 COMMON         0x0000000020000dd8        0x1 subsys/bluetooth/controller/libsubsys__bluetooth__controller.a(ll_filter.c.obj)
                0x0000000020000dd8                wl_anon
 *fill*         0x0000000020000dd9        0x7 
 COMMON         0x0000000020000de0       0x10 kernel/libkernel.a(sys_clock.c.obj)
                0x0000000020000de0                _handling_timeouts
                0x0000000020000de4                _time_slice_elapsed
                0x0000000020000de8                _sys_clock_tick_count
 COMMON         0x0000000020000df0       0x70 kernel/libkernel.a(system_work_q.c.obj)
                0x0000000020000df0                k_sys_work_q
 *(.kernel_bss.*)
                0x0000000020000e60                __bss_end = ALIGN (0x4)

noinit          0x0000000020000e60     0x1338
 *(.noinit)
 *(.noinit.*)
 .noinit."/home/israel/zephyr/subsys/bluetooth/host/hci_core.c".1
                0x0000000020000e60       0x30 subsys/bluetooth/host/libsubsys__bluetooth__host.a(hci_core.c.obj)
 .noinit."/home/israel/zephyr/subsys/bluetooth/host/hci_core.c".2
                0x0000000020000e90       0x98 subsys/bluetooth/host/libsubsys__bluetooth__host.a(hci_core.c.obj)
 .noinit."/home/israel/zephyr/subsys/bluetooth/host/hci_core.c".3
                0x0000000020000f28       0x48 subsys/bluetooth/host/libsubsys__bluetooth__host.a(hci_core.c.obj)
 .noinit."/home/israel/zephyr/subsys/bluetooth/host/hci_core.c".4
                0x0000000020000f70       0xe4 subsys/bluetooth/host/libsubsys__bluetooth__host.a(hci_core.c.obj)
 *fill*         0x0000000020001054        0x4 
 .noinit."/home/israel/zephyr/subsys/bluetooth/controller/hci/hci_driver.c".0
                0x0000000020001058      0x1c0 subsys/bluetooth/controller/libsubsys__bluetooth__controller.a(hci_driver.c.obj)
 .noinit."/home/israel/zephyr/subsys/bluetooth/controller/hci/hci_driver.c".1
                0x0000000020001218      0x400 subsys/bluetooth/controller/libsubsys__bluetooth__controller.a(hci_driver.c.obj)
 .noinit."/home/israel/zephyr/kernel/init.c".1
                0x0000000020001618      0x400 kernel/libkernel.a(init.c.obj)
                0x0000000020001618                _main_stack
 .noinit."/home/israel/zephyr/kernel/init.c".2
                0x0000000020001a18      0x100 kernel/libkernel.a(init.c.obj)
                0x0000000020001a18                _idle_stack
 .noinit."/home/israel/zephyr/kernel/init.c".3
                0x0000000020001b18      0x280 kernel/libkernel.a(init.c.obj)
                0x0000000020001b18                _interrupt_stack
 .noinit."/home/israel/zephyr/kernel/system_work_q.c".0
                0x0000000020001d98      0x400 kernel/libkernel.a(system_work_q.c.obj)
                0x0000000020001d98                sys_work_q_stack
 *(.kernel_noinit.*)

datas           0x0000000020002198      0x32c load address 0x000000000000db34
                0x0000000020002198                __data_ram_start = .
 *(.data)
 *(.data.*)
 .data._stdout_hook
                0x0000000020002198        0x4 ../libapp.a(stdout_console.c.obj)
 .data.machine  0x000000002000219c       0x28 ../libapp.a(main.c.obj)
                0x000000002000219c                machine
 .data._char_out
                0x00000000200021c4        0x4 libzephyr.a(printk.c.obj)
 .data.display  0x00000000200021c8       0x80 libzephyr.a(mb_display.c.obj)
 .data.api      0x0000000020002248        0x8 libzephyr.a(i2c_gpio.c.obj)
 .data.i2c_nrf5_data_0
                0x0000000020002250       0x38 libzephyr.a(i2c_nrf5.c.obj)
 .data.uart_nrf5_dev_data_0
                0x0000000020002288        0x4 libzephyr.a(uart_nrf5.c.obj)
 *fill*         0x000000002000228c        0x4 
 .data.bt_dev   0x0000000020002290       0xc8 subsys/bluetooth/host/libsubsys__bluetooth__host.a(hci_core.c.obj)
                0x0000000020002290                bt_dev
 .data.event_mask
                0x0000000020002358        0x8 subsys/bluetooth/controller/libsubsys__bluetooth__controller.a(hci.c.obj)
 .data.le_event_mask
                0x0000000020002360        0x8 subsys/bluetooth/controller/libsubsys__bluetooth__controller.a(hci.c.obj)
 .data.s_mfy_adv_stop.10233
                0x0000000020002368       0x10 subsys/bluetooth/controller/libsubsys__bluetooth__controller.a(ctrl.c.obj)
 .data.s_mfy_radio_active.9911
                0x0000000020002378       0x10 subsys/bluetooth/controller/libsubsys__bluetooth__controller.a(ctrl.c.obj)
 .data.s_mfy_radio_inactive.10213
                0x0000000020002388       0x10 subsys/bluetooth/controller/libsubsys__bluetooth__controller.a(ctrl.c.obj)
 .data.s_mfy_radio_inactive.10528
                0x0000000020002398       0x10 subsys/bluetooth/controller/libsubsys__bluetooth__controller.a(ctrl.c.obj)
 .data.s_mfy_radio_inactive.9923
                0x00000000200023a8       0x10 subsys/bluetooth/controller/libsubsys__bluetooth__controller.a(ctrl.c.obj)
 .data.s_mfy_radio_stop.10067
                0x00000000200023b8       0x10 subsys/bluetooth/controller/libsubsys__bluetooth__controller.a(ctrl.c.obj)
 .data.s_mfy_radio_stop.10227
                0x00000000200023c8       0x10 subsys/bluetooth/controller/libsubsys__bluetooth__controller.a(ctrl.c.obj)
 .data.s_mfy_radio_stop.10536
                0x00000000200023d8       0x10 subsys/bluetooth/controller/libsubsys__bluetooth__controller.a(ctrl.c.obj)
 .data.s_mfy_sched_offset.10281
                0x00000000200023e8       0x10 subsys/bluetooth/controller/libsubsys__bluetooth__controller.a(ctrl.c.obj)
 .data.s_mfy_xtal_start.9935
                0x00000000200023f8       0x10 subsys/bluetooth/controller/libsubsys__bluetooth__controller.a(ctrl.c.obj)
 .data.s_mfy_xtal_start.9946
                0x0000000020002408       0x10 subsys/bluetooth/controller/libsubsys__bluetooth__controller.a(ctrl.c.obj)
 .data.s_mfy_xtal_stop.10220
                0x0000000020002418       0x10 subsys/bluetooth/controller/libsubsys__bluetooth__controller.a(ctrl.c.obj)
 .data.s_mfy_xtal_stop.10532
                0x0000000020002428       0x10 subsys/bluetooth/controller/libsubsys__bluetooth__controller.a(ctrl.c.obj)
 .data.s_mfy_xtal_stop.9949
                0x0000000020002438       0x20 subsys/bluetooth/controller/libsubsys__bluetooth__controller.a(ctrl.c.obj)
 .data.s_mfy_xtal_stop_calc.10087
                0x0000000020002458       0x10 subsys/bluetooth/controller/libsubsys__bluetooth__controller.a(ctrl.c.obj)
 .data.m.7390   0x0000000020002468       0x10 subsys/bluetooth/controller/libsubsys__bluetooth__controller.a(ticker.c.obj)
 .data.m.7397   0x0000000020002478       0x10 subsys/bluetooth/controller/libsubsys__bluetooth__controller.a(ticker.c.obj)
 .data.m.7403   0x0000000020002488       0x10 subsys/bluetooth/controller/libsubsys__bluetooth__controller.a(ticker.c.obj)
 .data.m.7407   0x0000000020002498       0x10 subsys/bluetooth/controller/libsubsys__bluetooth__controller.a(ticker.c.obj)
 .data.m.7412   0x00000000200024a8       0x10 subsys/bluetooth/controller/libsubsys__bluetooth__controller.a(ticker.c.obj)
 .data._sys_idle_threshold_ticks
                0x00000000200024b8        0x4 kernel/libkernel.a(idle.c.obj)
                0x00000000200024b8                _sys_idle_threshold_ticks
 .data._sys_idle_elapsed_ticks
                0x00000000200024bc        0x4 kernel/libkernel.a(sys_clock.c.obj)
                0x00000000200024bc                _sys_idle_elapsed_ticks
 .data.sys_clock_hw_cycles_per_tick
                0x00000000200024c0        0x4 kernel/libkernel.a(sys_clock.c.obj)
                0x00000000200024c0                sys_clock_hw_cycles_per_tick
 *(.kernel.*)
                0x000000000000db34                __data_rom_start = LOADADDR (datas)

initlevel       0x00000000200024c4       0xb4 load address 0x000000000000de60
                0x00000000200024c4                __device_init_start = .
                0x00000000200024c4                __device_PRE_KERNEL_1_start = .
 *(SORT(.init_PRE_KERNEL_1[0-9]))
 .init_PRE_KERNEL_10
                0x00000000200024c4        0xc libzephyr.a(soc.c.obj)
 *(SORT(.init_PRE_KERNEL_1[1-9][0-9]))
 .init_PRE_KERNEL_130
                0x00000000200024d0        0xc kernel/libkernel.a(mempool.c.obj)
 .init_PRE_KERNEL_150
                0x00000000200024dc       0x18 libzephyr.a(nrf5_power_clock.c.obj)
 .init_PRE_KERNEL_150
                0x00000000200024f4        0xc libzephyr.a(uart_nrf5.c.obj)
 .init_PRE_KERNEL_160
                0x0000000020002500        0xc libzephyr.a(uart_console.c.obj)
                0x000000002000250c                __device_PRE_KERNEL_2_start = .
 *(SORT(.init_PRE_KERNEL_2[0-9]))
 .init_PRE_KERNEL_20
                0x000000002000250c        0xc libzephyr.a(sys_clock_init.c.obj)
 *(SORT(.init_PRE_KERNEL_2[1-9][0-9]))
 .init_PRE_KERNEL_260
                0x0000000020002518        0xc libzephyr.a(i2c_gpio.c.obj)
                0x0000000020002524                __device_POST_KERNEL_start = .
 *(SORT(.init_POST_KERNEL[0-9]))
 *(SORT(.init_POST_KERNEL[1-9][0-9]))
 .init_POST_KERNEL40
                0x0000000020002524        0xc libzephyr.a(gpio_nrf5.c.obj)
 .init_POST_KERNEL40
                0x0000000020002530        0xc kernel/libkernel.a(system_work_q.c.obj)
 .init_POST_KERNEL50
                0x000000002000253c        0xc libzephyr.a(mb_display.c.obj)
 .init_POST_KERNEL50
                0x0000000020002548        0xc libzephyr.a(i2c_nrf5.c.obj)
 .init_POST_KERNEL50
                0x0000000020002554        0xc libzephyr.a(pwm_nrf5_sw.c.obj)
 .init_POST_KERNEL50
                0x0000000020002560        0xc subsys/bluetooth/controller/libsubsys__bluetooth__controller.a(hci_driver.c.obj)
 .init_POST_KERNEL90
                0x000000002000256c        0xc libzephyr.a(temp_nrf5.c.obj)
                0x0000000020002578                __device_APPLICATION_start = .
 *(SORT(.init_APPLICATION[0-9]))
 *(SORT(.init_APPLICATION[1-9][0-9]))
                0x0000000020002578                __device_init_end = .

initlevel_error
                0x00000000200024c4        0x0
 *(SORT(.init_[_A-Z0-9]*))
                0x0000000000000001                ASSERT ((SIZEOF (initlevel_error) == 0x0), Undefined initialization levels used.)

initshell       0x0000000020002578        0x0 load address 0x000000000000df14
                0x0000000020002578                __shell_module_start = .
 *(.shell_module_*)
                0x0000000020002578                __shell_module_end = .
                0x0000000020002578                __shell_cmd_start = .
 *(.shell_cmd_*)
                0x0000000020002578                __shell_cmd_end = .

_static_thread_area
                0x0000000020002578        0x0 load address 0x000000000000df14
                0x0000000020002578                _static_thread_data_list_start = .
 *(SORT(._static_thread_data.static.*))
                0x0000000020002578                _static_thread_data_list_end = .

_k_timer_area   0x0000000020002578        0x0 load address 0x000000000000df14
                0x0000000020002578                _k_timer_list_start = .
 *(SORT(._k_timer.static.*))
                0x0000000020002578                _k_timer_list_end = .

_k_mem_slab_area
                0x0000000020002578        0x0 load address 0x000000000000df14
                0x0000000020002578                _k_mem_slab_list_start = .
 *(SORT(._k_mem_slab.static.*))
                0x0000000020002578                _k_mem_slab_list_end = .

_k_mem_pool_area
                0x0000000020002578        0x0 load address 0x000000000000df14
 *(SORT(._k_memory_pool.struct*))
                0x0000000020002578                _k_mem_pool_list_start = .
 *(SORT(._k_mem_pool.static.*))
                0x0000000020002578                _k_mem_pool_list_end = .

_k_sem_area     0x0000000020002578       0x18 load address 0x000000000000df14
                0x0000000020002578                _k_sem_list_start = .
 *(SORT(._k_sem.static.*))
 ._k_sem.static.sem_prio_recv
                0x0000000020002578       0x18 subsys/bluetooth/controller/libsubsys__bluetooth__controller.a(hci_driver.c.obj)
                0x0000000020002590                _k_sem_list_end = .

_k_mutex_area   0x0000000020002590       0x14 load address 0x000000000000df2c
                0x0000000020002590                _k_mutex_list_start = .
 *(SORT(._k_mutex.static.*))
 ._k_mutex.static.mutex_rand
                0x0000000020002590       0x14 subsys/bluetooth/controller/libsubsys__bluetooth__controller.a(crypto.c.obj)
                0x0000000020002590                mutex_rand
                0x00000000200025a4                _k_mutex_list_end = .

_k_alert_area   0x00000000200025a4        0x0 load address 0x000000000000df40
                0x00000000200025a4                _k_alert_list_start = .
 *(SORT(._k_alert.static.*))
                0x00000000200025a4                _k_alert_list_end = .

_k_queue_area   0x00000000200025a4       0x10 load address 0x000000000000df40
                0x00000000200025a4                _k_queue_list_start = .
 *(SORT(._k_queue.static.*))
 ._k_queue.static.recv_fifo
                0x00000000200025a4       0x10 subsys/bluetooth/controller/libsubsys__bluetooth__controller.a(hci_driver.c.obj)
                0x00000000200025b4                _k_queue_list_end = .

_k_stack_area   0x00000000200025b4        0x0 load address 0x000000000000df50
                0x00000000200025b4                _k_stack_list_start = .
 *(SORT(._k_stack.static.*))
                0x00000000200025b4                _k_stack_list_end = .

_k_msgq_area    0x00000000200025b4        0x0 load address 0x000000000000df50
                0x00000000200025b4                _k_msgq_list_start = .
 *(SORT(._k_msgq.static.*))
                0x00000000200025b4                _k_msgq_list_end = .

_k_mbox_area    0x00000000200025b4        0x0 load address 0x000000000000df50
                0x00000000200025b4                _k_mbox_list_start = .
 *(SORT(._k_mbox.static.*))
                0x00000000200025b4                _k_mbox_list_end = .

_k_pipe_area    0x00000000200025b4        0x0 load address 0x000000000000df50
                0x00000000200025b4                _k_pipe_list_start = .
 *(SORT(._k_pipe.static.*))
                0x00000000200025b4                _k_pipe_list_end = .

_k_work_area    0x00000000200025b4        0x0 load address 0x000000000000df50
                0x00000000200025b4                _k_work_list_start = .
 *(SORT(._k_work.static.*))
                0x00000000200025b4                _k_work_list_end = .

_k_task_list    0x00000000200025b4        0x0 load address 0x000000000000df50
                0x00000000200025b4                _k_task_list_start = .
 *(._k_task_list.public.*)
 *(._k_task_list.private.*)
                0x00000000200025b4                _k_task_list_idle_start = .
 *(._k_task_list.idle.*)
 *(SORT(._k_task_list*))
                0x00000000200025b4                _k_task_list_end = .

_k_event_list   0x00000000200025b4        0x0 load address 0x000000000000df50
                0x00000000200025b4                _k_event_list_start = .
 *(._k_event_list.event.*)
 *(SORT(._k_event_list*))
                0x00000000200025b4                _k_event_list_end = .

_k_memory_pool  0x00000000200025b4        0x0 load address 0x000000000000df50
 *(._k_memory_pool.struct*)
 *(SORT(._k_memory_pool.struct*))
                0x00000000200025b4                _k_mem_pool_start = .
 *(._k_memory_pool.*)
 *(SORT(._k_memory_pool*))
                0x00000000200025b4                _k_mem_pool_end = .

_net_buf_pool_area
                0x00000000200025b4       0x40 load address 0x000000000000df50
                0x00000000200025b4                _net_buf_pool_list = .
 *(SORT(._net_buf_pool.static.*))
 ._net_buf_pool.static.hci_cmd_pool
                0x00000000200025b4       0x20 subsys/bluetooth/host/libsubsys__bluetooth__host.a(hci_core.c.obj)
                0x00000000200025b4                hci_cmd_pool
 ._net_buf_pool.static.hci_rx_pool
                0x00000000200025d4       0x20 subsys/bluetooth/host/libsubsys__bluetooth__host.a(hci_core.c.obj)
                0x00000000200025d4                hci_rx_pool

net_if          0x00000000200025f4        0x0 load address 0x000000000000df90
                0x00000000200025f4                __net_if_start = .
 *(.net_if.*)
 *(SORT(.net_if.*))
                0x00000000200025f4                __net_if_end = .

net_if_event    0x00000000200025f4        0x0 load address 0x000000000000df90
                0x00000000200025f4                __net_if_event_start = .
 *(.net_if_event.*)
 *(SORT(.net_if_event.*))
                0x00000000200025f4                __net_if_event_end = .

net_l2_data     0x00000000200025f4        0x0 load address 0x000000000000df90
                0x00000000200025f4                __net_l2_data_start = .
 *(.net_l2.data)
 *(SORT(.net_l2.data*))
                0x00000000200025f4                __net_l2_data_end = .
                0x00000000200025f4                __data_ram_end = .
                0x00000000200025f4                _image_ram_end = .
                0x00000000200025f4                _end = .
                0x0000000020004000                __kernel_ram_end = 0x20004000
                0x0000000000004000                __kernel_ram_size = (__kernel_ram_end - __kernel_ram_start)

/DISCARD/
 *(.irq_info)
 *(.intList)
OUTPUT(zephyr.elf elf32-littlearm)

.debug_info     0x0000000000000000    0x4f789
 .debug_info    0x0000000000000000       0xe0 CMakeFiles/kernel_elf.dir/isr_tables.c.obj
 .debug_info    0x00000000000000e0      0x53f ../libapp.a(string.c.obj)
 .debug_info    0x000000000000061f      0xc34 ../libapp.a(prf.c.obj)
 .debug_info    0x0000000000001253      0x243 ../libapp.a(stdout_console.c.obj)
 .debug_info    0x0000000000001496      0x227 ../libapp.a(fprintf.c.obj)
 .debug_info    0x00000000000016bd     0x15e4 ../libapp.a(main.c.obj)
 .debug_info    0x0000000000002ca1      0x147 libzephyr.a(isr_tables.c.obj)
 .debug_info    0x0000000000002de8      0x73f libzephyr.a(soc.c.obj)
 .debug_info    0x0000000000003527       0x91 libzephyr.a(exc_exit.S.obj)
 .debug_info    0x00000000000035b8      0x7c0 libzephyr.a(irq_init.c.obj)
 .debug_info    0x0000000000003d78       0x89 libzephyr.a(swap.S.obj)
 .debug_info    0x0000000000003e01      0x9fa libzephyr.a(fault.c.obj)
 .debug_info    0x00000000000047fb      0xc34 libzephyr.a(irq_manage.c.obj)
 .debug_info    0x000000000000542f      0x96e libzephyr.a(thread.c.obj)
 .debug_info    0x0000000000005d9d       0x8d libzephyr.a(cpu_idle.S.obj)
 .debug_info    0x0000000000005e2a       0x90 libzephyr.a(fault_s.S.obj)
 .debug_info    0x0000000000005eba      0x913 libzephyr.a(fatal.c.obj)
 .debug_info    0x00000000000067cd      0x889 libzephyr.a(sys_fatal_error_handler.c.obj)
 .debug_info    0x0000000000007056      0x846 libzephyr.a(thread_abort.c.obj)
 .debug_info    0x000000000000789c       0x94 libzephyr.a(isr_wrapper.S.obj)
 .debug_info    0x0000000000007930       0x97 libzephyr.a(reset.S.obj)
 .debug_info    0x00000000000079c7       0x9e libzephyr.a(nmi_on_reset.S.obj)
 .debug_info    0x0000000000007a65      0x63d libzephyr.a(prep_c.c.obj)
 .debug_info    0x00000000000080a2      0x4d5 libzephyr.a(nmi.c.obj)
 .debug_info    0x0000000000008577      0xd39 libzephyr.a(printk.c.obj)
 .debug_info    0x00000000000092b0       0x33 libzephyr.a(configs.c.obj)
 .debug_info    0x00000000000092e3      0x80a libzephyr.a(uart_console.c.obj)
 .debug_info    0x0000000000009aed     0x177f libzephyr.a(mb_display.c.obj)
 .debug_info    0x000000000000b26c      0x138 libzephyr.a(mb_font.c.obj)
 .debug_info    0x000000000000b3a4     0x1364 libzephyr.a(nrf5_power_clock.c.obj)
 .debug_info    0x000000000000c708     0x146b libzephyr.a(gpio_nrf5.c.obj)
 .debug_info    0x000000000000db73      0xcbd libzephyr.a(i2c_bitbang.c.obj)
 .debug_info    0x000000000000e830      0xf66 libzephyr.a(i2c_gpio.c.obj)
 .debug_info    0x000000000000f796     0x16a6 libzephyr.a(i2c_nrf5.c.obj)
 .debug_info    0x0000000000010e3c      0xecb libzephyr.a(pwm_nrf5_sw.c.obj)
 .debug_info    0x0000000000011d07      0xf25 libzephyr.a(temp_nrf5.c.obj)
 .debug_info    0x0000000000012c2c      0xf96 libzephyr.a(uart_nrf5.c.obj)
 .debug_info    0x0000000000013bc2      0x581 libzephyr.a(sys_clock_init.c.obj)
 .debug_info    0x0000000000014143      0xd82 libzephyr.a(nrf_rtc_timer.c.obj)
 .debug_info    0x0000000000014ec5     0x5630 subsys/bluetooth/host/libsubsys__bluetooth__host.a(hci_core.c.obj)
 .debug_info    0x000000000001a4f5      0x4ee subsys/bluetooth/controller/libsubsys__bluetooth__controller.a(mem.c.obj)
 .debug_info    0x000000000001a9e3      0x1fa subsys/bluetooth/controller/libsubsys__bluetooth__controller.a(memq.c.obj)
 .debug_info    0x000000000001abdd      0x4e0 subsys/bluetooth/controller/libsubsys__bluetooth__controller.a(mayfly.c.obj)
 .debug_info    0x000000000001b0bd       0xc9 subsys/bluetooth/controller/libsubsys__bluetooth__controller.a(util.c.obj)
 .debug_info    0x000000000001b186     0x23b0 subsys/bluetooth/controller/libsubsys__bluetooth__controller.a(ticker.c.obj)
 .debug_info    0x000000000001d536      0x182 subsys/bluetooth/controller/libsubsys__bluetooth__controller.a(ll_addr.c.obj)
 .debug_info    0x000000000001d6b8       0xfb subsys/bluetooth/controller/libsubsys__bluetooth__controller.a(ll_tx_pwr.c.obj)
 .debug_info    0x000000000001d7b3      0x972 subsys/bluetooth/controller/libsubsys__bluetooth__controller.a(crypto.c.obj)
 .debug_info    0x000000000001e125     0x1274 subsys/bluetooth/controller/libsubsys__bluetooth__controller.a(hci_driver.c.obj)
 .debug_info    0x000000000001f399     0x475e subsys/bluetooth/controller/libsubsys__bluetooth__controller.a(hci.c.obj)
 .debug_info    0x0000000000023af7     0xa0f3 subsys/bluetooth/controller/libsubsys__bluetooth__controller.a(ctrl.c.obj)
 .debug_info    0x000000000002dbea     0x1191 subsys/bluetooth/controller/libsubsys__bluetooth__controller.a(ll.c.obj)
 .debug_info    0x000000000002ed7b      0xead subsys/bluetooth/controller/libsubsys__bluetooth__controller.a(ll_adv.c.obj)
 .debug_info    0x000000000002fc28      0xb12 subsys/bluetooth/controller/libsubsys__bluetooth__controller.a(ll_filter.c.obj)
 .debug_info    0x000000000003073a      0x9a0 subsys/bluetooth/controller/libsubsys__bluetooth__controller.a(cntr.c.obj)
 .debug_info    0x00000000000310da      0xc72 subsys/bluetooth/controller/libsubsys__bluetooth__controller.a(rand.c.obj)
 .debug_info    0x0000000000031d4c      0xfe0 subsys/bluetooth/controller/libsubsys__bluetooth__controller.a(ecb.c.obj)
 .debug_info    0x0000000000032d2c     0x1f87 subsys/bluetooth/controller/libsubsys__bluetooth__controller.a(radio.c.obj)
 .debug_info    0x0000000000034cb3      0xa3f subsys/bluetooth/controller/libsubsys__bluetooth__controller.a(mayfly.c.obj)
 .debug_info    0x00000000000356f2      0x97e subsys/bluetooth/controller/libsubsys__bluetooth__controller.a(ticker.c.obj)
 .debug_info    0x0000000000036070     0x22e3 subsys/net/libsubsys__net.a(buf.c.obj)
 .debug_info    0x0000000000038353      0x6e3 kernel/libkernel.a(device.c.obj)
 .debug_info    0x0000000000038a36      0x685 kernel/libkernel.a(errno.c.obj)
 .debug_info    0x00000000000390bb      0x8ca kernel/libkernel.a(idle.c.obj)
 .debug_info    0x0000000000039985     0x1082 kernel/libkernel.a(init.c.obj)
 .debug_info    0x000000000003aa07     0x1bcd kernel/libkernel.a(mempool.c.obj)
 .debug_info    0x000000000003c5d4     0x1131 kernel/libkernel.a(mutex.c.obj)
 .debug_info    0x000000000003d705     0x11b5 kernel/libkernel.a(queue.c.obj)
 .debug_info    0x000000000003e8ba     0x1d20 kernel/libkernel.a(sched.c.obj)
 .debug_info    0x00000000000405da     0x1162 kernel/libkernel.a(sem.c.obj)
 .debug_info    0x000000000004173c     0x1140 kernel/libkernel.a(sys_clock.c.obj)
 .debug_info    0x000000000004287c      0x626 kernel/libkernel.a(system_work_q.c.obj)
 .debug_info    0x0000000000042ea2     0x1b8b kernel/libkernel.a(thread.c.obj)
 .debug_info    0x0000000000044a2d     0x1675 kernel/libkernel.a(work_q.c.obj)
 .debug_info    0x00000000000460a2     0x16ec kernel/libkernel.a(timer.c.obj)
 .debug_info    0x000000000004778e      0x6fb kernel/libkernel.a(atomic_c.c.obj)
 .debug_info    0x0000000000047e89     0x19ab kernel/libkernel.a(poll.c.obj)
 .debug_info    0x0000000000049834      0x923 CMakeFiles/offsets.dir/arch/arm/core/offsets/offsets.c.obj
 .debug_info    0x000000000004a157       0xdf /opt/zephyr-sdk/sysroots/armv5-zephyr-eabi/usr/lib/arm-zephyr-eabi/6.2.0/armv6-m/libgcc.a(_thumb1_case_sqi.o)
 .debug_info    0x000000000004a236       0xdf /opt/zephyr-sdk/sysroots/armv5-zephyr-eabi/usr/lib/arm-zephyr-eabi/6.2.0/armv6-m/libgcc.a(_thumb1_case_uqi.o)
 .debug_info    0x000000000004a315       0xdf /opt/zephyr-sdk/sysroots/armv5-zephyr-eabi/usr/lib/arm-zephyr-eabi/6.2.0/armv6-m/libgcc.a(_thumb1_case_shi.o)
 .debug_info    0x000000000004a3f4       0xdf /opt/zephyr-sdk/sysroots/armv5-zephyr-eabi/usr/lib/arm-zephyr-eabi/6.2.0/armv6-m/libgcc.a(_thumb1_case_uhi.o)
 .debug_info    0x000000000004a4d3       0xdf /opt/zephyr-sdk/sysroots/armv5-zephyr-eabi/usr/lib/arm-zephyr-eabi/6.2.0/armv6-m/libgcc.a(_udivsi3.o)
 .debug_info    0x000000000004a5b2       0xdf /opt/zephyr-sdk/sysroots/armv5-zephyr-eabi/usr/lib/arm-zephyr-eabi/6.2.0/armv6-m/libgcc.a(_divsi3.o)
 .debug_info    0x000000000004a691       0xdf /opt/zephyr-sdk/sysroots/armv5-zephyr-eabi/usr/lib/arm-zephyr-eabi/6.2.0/armv6-m/libgcc.a(_dvmd_tls.o)
 .debug_info    0x000000000004a770       0xdf /opt/zephyr-sdk/sysroots/armv5-zephyr-eabi/usr/lib/arm-zephyr-eabi/6.2.0/armv6-m/libgcc.a(_lshrdi3.o)
 .debug_info    0x000000000004a84f       0xdf /opt/zephyr-sdk/sysroots/armv5-zephyr-eabi/usr/lib/arm-zephyr-eabi/6.2.0/armv6-m/libgcc.a(_ashldi3.o)
 .debug_info    0x000000000004a92e       0xdf /opt/zephyr-sdk/sysroots/armv5-zephyr-eabi/usr/lib/arm-zephyr-eabi/6.2.0/armv6-m/libgcc.a(_aeabi_uldivmod.o)
 .debug_info    0x000000000004aa0d      0x9c3 /opt/zephyr-sdk/sysroots/armv5-zephyr-eabi/usr/lib/arm-zephyr-eabi/6.2.0/armv6-m/libgcc.a(_muldi3.o)
 .debug_info    0x000000000004b3d0      0x89c /opt/zephyr-sdk/sysroots/armv5-zephyr-eabi/usr/lib/arm-zephyr-eabi/6.2.0/armv6-m/libgcc.a(_ffssi2.o)
 .debug_info    0x000000000004bc6c      0x88c /opt/zephyr-sdk/sysroots/armv5-zephyr-eabi/usr/lib/arm-zephyr-eabi/6.2.0/armv6-m/libgcc.a(_popcountsi2.o)
 .debug_info    0x000000000004c4f8      0x8a2 /opt/zephyr-sdk/sysroots/armv5-zephyr-eabi/usr/lib/arm-zephyr-eabi/6.2.0/armv6-m/libgcc.a(_fixunsdfsi.o)
 .debug_info    0x000000000004cd9a      0x923 /opt/zephyr-sdk/sysroots/armv5-zephyr-eabi/usr/lib/arm-zephyr-eabi/6.2.0/armv6-m/libgcc.a(_udivmoddi4.o)
 .debug_info    0x000000000004d6bd      0x550 /opt/zephyr-sdk/sysroots/armv5-zephyr-eabi/usr/lib/arm-zephyr-eabi/6.2.0/armv6-m/libgcc.a(adddf3.o)
 .debug_info    0x000000000004dc0d      0x6de /opt/zephyr-sdk/sysroots/armv5-zephyr-eabi/usr/lib/arm-zephyr-eabi/6.2.0/armv6-m/libgcc.a(divdf3.o)
 .debug_info    0x000000000004e2eb      0x55c /opt/zephyr-sdk/sysroots/armv5-zephyr-eabi/usr/lib/arm-zephyr-eabi/6.2.0/armv6-m/libgcc.a(subdf3.o)
 .debug_info    0x000000000004e847      0x1f1 /opt/zephyr-sdk/sysroots/armv5-zephyr-eabi/usr/lib/arm-zephyr-eabi/6.2.0/armv6-m/libgcc.a(fixdfsi.o)
 .debug_info    0x000000000004ea38      0x2aa /opt/zephyr-sdk/sysroots/armv5-zephyr-eabi/usr/lib/arm-zephyr-eabi/6.2.0/armv6-m/libgcc.a(floatsidf.o)
 .debug_info    0x000000000004ece2       0xdf /opt/zephyr-sdk/sysroots/armv5-zephyr-eabi/usr/lib/arm-zephyr-eabi/6.2.0/armv6-m/libgcc.a(_arm_cmpdf2.o)
 .debug_info    0x000000000004edc1       0xdf /opt/zephyr-sdk/sysroots/armv5-zephyr-eabi/usr/lib/arm-zephyr-eabi/6.2.0/armv6-m/libgcc.a(_clzsi2.o)
 .debug_info    0x000000000004eea0       0xdf /opt/zephyr-sdk/sysroots/armv5-zephyr-eabi/usr/lib/arm-zephyr-eabi/6.2.0/armv6-m/libgcc.a(_clzdi2.o)
 .debug_info    0x000000000004ef7f       0xdf /opt/zephyr-sdk/sysroots/armv5-zephyr-eabi/usr/lib/arm-zephyr-eabi/6.2.0/armv6-m/libgcc.a(_ctzsi2.o)
 .debug_info    0x000000000004f05e      0x25d /opt/zephyr-sdk/sysroots/armv5-zephyr-eabi/usr/lib/arm-zephyr-eabi/6.2.0/armv6-m/libgcc.a(eqdf2.o)
 .debug_info    0x000000000004f2bb      0x267 /opt/zephyr-sdk/sysroots/armv5-zephyr-eabi/usr/lib/arm-zephyr-eabi/6.2.0/armv6-m/libgcc.a(gedf2.o)
 .debug_info    0x000000000004f522      0x267 /opt/zephyr-sdk/sysroots/armv5-zephyr-eabi/usr/lib/arm-zephyr-eabi/6.2.0/armv6-m/libgcc.a(ledf2.o)

.debug_abbrev   0x0000000000000000     0xedd4
 .debug_abbrev  0x0000000000000000       0xb5 CMakeFiles/kernel_elf.dir/isr_tables.c.obj
 .debug_abbrev  0x00000000000000b5      0x192 ../libapp.a(string.c.obj)
 .debug_abbrev  0x0000000000000247      0x32d ../libapp.a(prf.c.obj)
 .debug_abbrev  0x0000000000000574      0x156 ../libapp.a(stdout_console.c.obj)
 .debug_abbrev  0x00000000000006ca      0x105 ../libapp.a(fprintf.c.obj)
 .debug_abbrev  0x00000000000007cf      0x400 ../libapp.a(main.c.obj)
 .debug_abbrev  0x0000000000000bcf       0xe0 libzephyr.a(isr_tables.c.obj)
 .debug_abbrev  0x0000000000000caf      0x286 libzephyr.a(soc.c.obj)
 .debug_abbrev  0x0000000000000f35       0x14 libzephyr.a(exc_exit.S.obj)
 .debug_abbrev  0x0000000000000f49      0x222 libzephyr.a(irq_init.c.obj)
 .debug_abbrev  0x000000000000116b       0x12 libzephyr.a(swap.S.obj)
 .debug_abbrev  0x000000000000117d      0x2e0 libzephyr.a(fault.c.obj)
 .debug_abbrev  0x000000000000145d      0x35d libzephyr.a(irq_manage.c.obj)
 .debug_abbrev  0x00000000000017ba      0x293 libzephyr.a(thread.c.obj)
 .debug_abbrev  0x0000000000001a4d       0x12 libzephyr.a(cpu_idle.S.obj)
 .debug_abbrev  0x0000000000001a5f       0x14 libzephyr.a(fault_s.S.obj)
 .debug_abbrev  0x0000000000001a73      0x28d libzephyr.a(fatal.c.obj)
 .debug_abbrev  0x0000000000001d00      0x266 libzephyr.a(sys_fatal_error_handler.c.obj)
 .debug_abbrev  0x0000000000001f66      0x26d libzephyr.a(thread_abort.c.obj)
 .debug_abbrev  0x00000000000021d3       0x14 libzephyr.a(isr_wrapper.S.obj)
 .debug_abbrev  0x00000000000021e7       0x14 libzephyr.a(reset.S.obj)
 .debug_abbrev  0x00000000000021fb       0x14 libzephyr.a(nmi_on_reset.S.obj)
 .debug_abbrev  0x000000000000220f      0x1be libzephyr.a(prep_c.c.obj)
 .debug_abbrev  0x00000000000023cd      0x181 libzephyr.a(nmi.c.obj)
 .debug_abbrev  0x000000000000254e      0x3dc libzephyr.a(printk.c.obj)
 .debug_abbrev  0x000000000000292a       0x2a libzephyr.a(configs.c.obj)
 .debug_abbrev  0x0000000000002954      0x2e0 libzephyr.a(uart_console.c.obj)
 .debug_abbrev  0x0000000000002c34      0x55e libzephyr.a(mb_display.c.obj)
 .debug_abbrev  0x0000000000003192       0xbc libzephyr.a(mb_font.c.obj)
 .debug_abbrev  0x000000000000324e      0x3c5 libzephyr.a(nrf5_power_clock.c.obj)
 .debug_abbrev  0x0000000000003613      0x476 libzephyr.a(gpio_nrf5.c.obj)
 .debug_abbrev  0x0000000000003a89      0x36c libzephyr.a(i2c_bitbang.c.obj)
 .debug_abbrev  0x0000000000003df5      0x303 libzephyr.a(i2c_gpio.c.obj)
 .debug_abbrev  0x00000000000040f8      0x470 libzephyr.a(i2c_nrf5.c.obj)
 .debug_abbrev  0x0000000000004568      0x2de libzephyr.a(pwm_nrf5_sw.c.obj)
 .debug_abbrev  0x0000000000004846      0x351 libzephyr.a(temp_nrf5.c.obj)
 .debug_abbrev  0x0000000000004b97      0x379 libzephyr.a(uart_nrf5.c.obj)
 .debug_abbrev  0x0000000000004f10      0x17c libzephyr.a(sys_clock_init.c.obj)
 .debug_abbrev  0x000000000000508c      0x3cc libzephyr.a(nrf_rtc_timer.c.obj)
 .debug_abbrev  0x0000000000005458      0x62b subsys/bluetooth/host/libsubsys__bluetooth__host.a(hci_core.c.obj)
 .debug_abbrev  0x0000000000005a83      0x167 subsys/bluetooth/controller/libsubsys__bluetooth__controller.a(mem.c.obj)
 .debug_abbrev  0x0000000000005bea      0x137 subsys/bluetooth/controller/libsubsys__bluetooth__controller.a(memq.c.obj)
 .debug_abbrev  0x0000000000005d21      0x195 subsys/bluetooth/controller/libsubsys__bluetooth__controller.a(mayfly.c.obj)
 .debug_abbrev  0x0000000000005eb6       0x90 subsys/bluetooth/controller/libsubsys__bluetooth__controller.a(util.c.obj)
 .debug_abbrev  0x0000000000005f46      0x481 subsys/bluetooth/controller/libsubsys__bluetooth__controller.a(ticker.c.obj)
 .debug_abbrev  0x00000000000063c7       0xd5 subsys/bluetooth/controller/libsubsys__bluetooth__controller.a(ll_addr.c.obj)
 .debug_abbrev  0x000000000000649c       0x9f subsys/bluetooth/controller/libsubsys__bluetooth__controller.a(ll_tx_pwr.c.obj)
 .debug_abbrev  0x000000000000653b      0x27e subsys/bluetooth/controller/libsubsys__bluetooth__controller.a(crypto.c.obj)
 .debug_abbrev  0x00000000000067b9      0x3fe subsys/bluetooth/controller/libsubsys__bluetooth__controller.a(hci_driver.c.obj)
 .debug_abbrev  0x0000000000006bb7      0x56d subsys/bluetooth/controller/libsubsys__bluetooth__controller.a(hci.c.obj)
 .debug_abbrev  0x0000000000007124      0x6a5 subsys/bluetooth/controller/libsubsys__bluetooth__controller.a(ctrl.c.obj)
 .debug_abbrev  0x00000000000077c9      0x38c subsys/bluetooth/controller/libsubsys__bluetooth__controller.a(ll.c.obj)
 .debug_abbrev  0x0000000000007b55      0x36c subsys/bluetooth/controller/libsubsys__bluetooth__controller.a(ll_adv.c.obj)
 .debug_abbrev  0x0000000000007ec1      0x31b subsys/bluetooth/controller/libsubsys__bluetooth__controller.a(ll_filter.c.obj)
 .debug_abbrev  0x00000000000081dc      0x23e subsys/bluetooth/controller/libsubsys__bluetooth__controller.a(cntr.c.obj)
 .debug_abbrev  0x000000000000841a      0x2fa subsys/bluetooth/controller/libsubsys__bluetooth__controller.a(rand.c.obj)
 .debug_abbrev  0x0000000000008714      0x37f subsys/bluetooth/controller/libsubsys__bluetooth__controller.a(ecb.c.obj)
 .debug_abbrev  0x0000000000008a93      0x546 subsys/bluetooth/controller/libsubsys__bluetooth__controller.a(radio.c.obj)
 .debug_abbrev  0x0000000000008fd9      0x2b6 subsys/bluetooth/controller/libsubsys__bluetooth__controller.a(mayfly.c.obj)
 .debug_abbrev  0x000000000000928f      0x24d subsys/bluetooth/controller/libsubsys__bluetooth__controller.a(ticker.c.obj)
 .debug_abbrev  0x00000000000094dc      0x564 subsys/net/libsubsys__net.a(buf.c.obj)
 .debug_abbrev  0x0000000000009a40      0x281 kernel/libkernel.a(device.c.obj)
 .debug_abbrev  0x0000000000009cc1      0x1c9 kernel/libkernel.a(errno.c.obj)
 .debug_abbrev  0x0000000000009e8a      0x32b kernel/libkernel.a(idle.c.obj)
 .debug_abbrev  0x000000000000a1b5      0x48b kernel/libkernel.a(init.c.obj)
 .debug_abbrev  0x000000000000a640      0x511 kernel/libkernel.a(mempool.c.obj)
 .debug_abbrev  0x000000000000ab51      0x40a kernel/libkernel.a(mutex.c.obj)
 .debug_abbrev  0x000000000000af5b      0x3c5 kernel/libkernel.a(queue.c.obj)
 .debug_abbrev  0x000000000000b320      0x5d3 kernel/libkernel.a(sched.c.obj)
 .debug_abbrev  0x000000000000b8f3      0x42f kernel/libkernel.a(sem.c.obj)
 .debug_abbrev  0x000000000000bd22      0x41b kernel/libkernel.a(sys_clock.c.obj)
 .debug_abbrev  0x000000000000c13d      0x1f8 kernel/libkernel.a(system_work_q.c.obj)
 .debug_abbrev  0x000000000000c335      0x59e kernel/libkernel.a(thread.c.obj)
 .debug_abbrev  0x000000000000c8d3      0x469 kernel/libkernel.a(work_q.c.obj)
 .debug_abbrev  0x000000000000cd3c      0x4a2 kernel/libkernel.a(timer.c.obj)
 .debug_abbrev  0x000000000000d1de      0x1d4 kernel/libkernel.a(atomic_c.c.obj)
 .debug_abbrev  0x000000000000d3b2      0x560 kernel/libkernel.a(poll.c.obj)
 .debug_abbrev  0x000000000000d912      0x1ce CMakeFiles/offsets.dir/arch/arm/core/offsets/offsets.c.obj
 .debug_abbrev  0x000000000000dae0       0x14 /opt/zephyr-sdk/sysroots/armv5-zephyr-eabi/usr/lib/arm-zephyr-eabi/6.2.0/armv6-m/libgcc.a(_thumb1_case_sqi.o)
 .debug_abbrev  0x000000000000daf4       0x14 /opt/zephyr-sdk/sysroots/armv5-zephyr-eabi/usr/lib/arm-zephyr-eabi/6.2.0/armv6-m/libgcc.a(_thumb1_case_uqi.o)
 .debug_abbrev  0x000000000000db08       0x14 /opt/zephyr-sdk/sysroots/armv5-zephyr-eabi/usr/lib/arm-zephyr-eabi/6.2.0/armv6-m/libgcc.a(_thumb1_case_shi.o)
 .debug_abbrev  0x000000000000db1c       0x14 /opt/zephyr-sdk/sysroots/armv5-zephyr-eabi/usr/lib/arm-zephyr-eabi/6.2.0/armv6-m/libgcc.a(_thumb1_case_uhi.o)
 .debug_abbrev  0x000000000000db30       0x14 /opt/zephyr-sdk/sysroots/armv5-zephyr-eabi/usr/lib/arm-zephyr-eabi/6.2.0/armv6-m/libgcc.a(_udivsi3.o)
 .debug_abbrev  0x000000000000db44       0x14 /opt/zephyr-sdk/sysroots/armv5-zephyr-eabi/usr/lib/arm-zephyr-eabi/6.2.0/armv6-m/libgcc.a(_divsi3.o)
 .debug_abbrev  0x000000000000db58       0x14 /opt/zephyr-sdk/sysroots/armv5-zephyr-eabi/usr/lib/arm-zephyr-eabi/6.2.0/armv6-m/libgcc.a(_dvmd_tls.o)
 .debug_abbrev  0x000000000000db6c       0x14 /opt/zephyr-sdk/sysroots/armv5-zephyr-eabi/usr/lib/arm-zephyr-eabi/6.2.0/armv6-m/libgcc.a(_lshrdi3.o)
 .debug_abbrev  0x000000000000db80       0x14 /opt/zephyr-sdk/sysroots/armv5-zephyr-eabi/usr/lib/arm-zephyr-eabi/6.2.0/armv6-m/libgcc.a(_ashldi3.o)
 .debug_abbrev  0x000000000000db94       0x14 /opt/zephyr-sdk/sysroots/armv5-zephyr-eabi/usr/lib/arm-zephyr-eabi/6.2.0/armv6-m/libgcc.a(_aeabi_uldivmod.o)
 .debug_abbrev  0x000000000000dba8      0x181 /opt/zephyr-sdk/sysroots/armv5-zephyr-eabi/usr/lib/arm-zephyr-eabi/6.2.0/armv6-m/libgcc.a(_muldi3.o)
 .debug_abbrev  0x000000000000dd29      0x144 /opt/zephyr-sdk/sysroots/armv5-zephyr-eabi/usr/lib/arm-zephyr-eabi/6.2.0/armv6-m/libgcc.a(_ffssi2.o)
 .debug_abbrev  0x000000000000de6d      0x135 /opt/zephyr-sdk/sysroots/armv5-zephyr-eabi/usr/lib/arm-zephyr-eabi/6.2.0/armv6-m/libgcc.a(_popcountsi2.o)
 .debug_abbrev  0x000000000000dfa2      0x135 /opt/zephyr-sdk/sysroots/armv5-zephyr-eabi/usr/lib/arm-zephyr-eabi/6.2.0/armv6-m/libgcc.a(_fixunsdfsi.o)
 .debug_abbrev  0x000000000000e0d7      0x155 /opt/zephyr-sdk/sysroots/armv5-zephyr-eabi/usr/lib/arm-zephyr-eabi/6.2.0/armv6-m/libgcc.a(_udivmoddi4.o)
 .debug_abbrev  0x000000000000e22c      0x17d /opt/zephyr-sdk/sysroots/armv5-zephyr-eabi/usr/lib/arm-zephyr-eabi/6.2.0/armv6-m/libgcc.a(adddf3.o)
 .debug_abbrev  0x000000000000e3a9      0x169 /opt/zephyr-sdk/sysroots/armv5-zephyr-eabi/usr/lib/arm-zephyr-eabi/6.2.0/armv6-m/libgcc.a(divdf3.o)
 .debug_abbrev  0x000000000000e512      0x17d /opt/zephyr-sdk/sysroots/armv5-zephyr-eabi/usr/lib/arm-zephyr-eabi/6.2.0/armv6-m/libgcc.a(subdf3.o)
 .debug_abbrev  0x000000000000e68f      0x159 /opt/zephyr-sdk/sysroots/armv5-zephyr-eabi/usr/lib/arm-zephyr-eabi/6.2.0/armv6-m/libgcc.a(fixdfsi.o)
 .debug_abbrev  0x000000000000e7e8      0x161 /opt/zephyr-sdk/sysroots/armv5-zephyr-eabi/usr/lib/arm-zephyr-eabi/6.2.0/armv6-m/libgcc.a(floatsidf.o)
 .debug_abbrev  0x000000000000e949       0x14 /opt/zephyr-sdk/sysroots/armv5-zephyr-eabi/usr/lib/arm-zephyr-eabi/6.2.0/armv6-m/libgcc.a(_arm_cmpdf2.o)
 .debug_abbrev  0x000000000000e95d       0x14 /opt/zephyr-sdk/sysroots/armv5-zephyr-eabi/usr/lib/arm-zephyr-eabi/6.2.0/armv6-m/libgcc.a(_clzsi2.o)
 .debug_abbrev  0x000000000000e971       0x14 /opt/zephyr-sdk/sysroots/armv5-zephyr-eabi/usr/lib/arm-zephyr-eabi/6.2.0/armv6-m/libgcc.a(_clzdi2.o)
 .debug_abbrev  0x000000000000e985       0x14 /opt/zephyr-sdk/sysroots/armv5-zephyr-eabi/usr/lib/arm-zephyr-eabi/6.2.0/armv6-m/libgcc.a(_ctzsi2.o)
 .debug_abbrev  0x000000000000e999      0x164 /opt/zephyr-sdk/sysroots/armv5-zephyr-eabi/usr/lib/arm-zephyr-eabi/6.2.0/armv6-m/libgcc.a(eqdf2.o)
 .debug_abbrev  0x000000000000eafd      0x166 /opt/zephyr-sdk/sysroots/armv5-zephyr-eabi/usr/lib/arm-zephyr-eabi/6.2.0/armv6-m/libgcc.a(gedf2.o)
 .debug_abbrev  0x000000000000ec63      0x171 /opt/zephyr-sdk/sysroots/armv5-zephyr-eabi/usr/lib/arm-zephyr-eabi/6.2.0/armv6-m/libgcc.a(ledf2.o)

.debug_aranges  0x0000000000000000     0x1ea0
 .debug_aranges
                0x0000000000000000       0x18 CMakeFiles/kernel_elf.dir/isr_tables.c.obj
 .debug_aranges
                0x0000000000000018       0x88 ../libapp.a(string.c.obj)
 .debug_aranges
                0x00000000000000a0       0x40 ../libapp.a(prf.c.obj)
 .debug_aranges
                0x00000000000000e0       0x48 ../libapp.a(stdout_console.c.obj)
 .debug_aranges
                0x0000000000000128       0x38 ../libapp.a(fprintf.c.obj)
 .debug_aranges
                0x0000000000000160       0x50 ../libapp.a(main.c.obj)
 .debug_aranges
                0x00000000000001b0       0x20 libzephyr.a(isr_tables.c.obj)
 .debug_aranges
                0x00000000000001d0       0x20 libzephyr.a(soc.c.obj)
 .debug_aranges
                0x00000000000001f0       0x20 libzephyr.a(exc_exit.S.obj)
 .debug_aranges
                0x0000000000000210       0x20 libzephyr.a(irq_init.c.obj)
 .debug_aranges
                0x0000000000000230       0x30 libzephyr.a(swap.S.obj)
 .debug_aranges
                0x0000000000000260       0x28 libzephyr.a(fault.c.obj)
 .debug_aranges
                0x0000000000000288       0x48 libzephyr.a(irq_manage.c.obj)
 .debug_aranges
                0x00000000000002d0       0x20 libzephyr.a(thread.c.obj)
 .debug_aranges
                0x00000000000002f0       0x40 libzephyr.a(cpu_idle.S.obj)
 .debug_aranges
                0x0000000000000330       0x20 libzephyr.a(fault_s.S.obj)
 .debug_aranges
                0x0000000000000350       0x30 libzephyr.a(fatal.c.obj)
 .debug_aranges
                0x0000000000000380       0x20 libzephyr.a(sys_fatal_error_handler.c.obj)
 .debug_aranges
                0x00000000000003a0       0x20 libzephyr.a(thread_abort.c.obj)
 .debug_aranges
                0x00000000000003c0       0x20 libzephyr.a(isr_wrapper.S.obj)
 .debug_aranges
                0x00000000000003e0       0x20 libzephyr.a(reset.S.obj)
 .debug_aranges
                0x0000000000000400       0x20 libzephyr.a(nmi_on_reset.S.obj)
 .debug_aranges
                0x0000000000000420       0x28 libzephyr.a(prep_c.c.obj)
 .debug_aranges
                0x0000000000000448       0x20 libzephyr.a(nmi.c.obj)
 .debug_aranges
                0x0000000000000468       0x78 libzephyr.a(printk.c.obj)
 .debug_aranges
                0x00000000000004e0       0x20 libzephyr.a(configs.c.obj)
 .debug_aranges
                0x0000000000000500       0x30 libzephyr.a(uart_console.c.obj)
 .debug_aranges
                0x0000000000000530       0x78 libzephyr.a(mb_display.c.obj)
 .debug_aranges
                0x00000000000005a8       0x18 libzephyr.a(mb_font.c.obj)
 .debug_aranges
                0x00000000000005c0       0x40 libzephyr.a(nrf5_power_clock.c.obj)
 .debug_aranges
                0x0000000000000600       0x78 libzephyr.a(gpio_nrf5.c.obj)
 .debug_aranges
                0x0000000000000678       0x70 libzephyr.a(i2c_bitbang.c.obj)
 .debug_aranges
                0x00000000000006e8       0x48 libzephyr.a(i2c_gpio.c.obj)
 .debug_aranges
                0x0000000000000730       0x40 libzephyr.a(i2c_nrf5.c.obj)
 .debug_aranges
                0x0000000000000770       0x30 libzephyr.a(pwm_nrf5_sw.c.obj)
 .debug_aranges
                0x00000000000007a0       0x38 libzephyr.a(temp_nrf5.c.obj)
 .debug_aranges
                0x00000000000007d8       0x38 libzephyr.a(uart_nrf5.c.obj)
 .debug_aranges
                0x0000000000000810       0x18 libzephyr.a(sys_clock_init.c.obj)
 .debug_aranges
                0x0000000000000828       0x50 libzephyr.a(nrf_rtc_timer.c.obj)
 .debug_aranges
                0x0000000000000878      0x128 subsys/bluetooth/host/libsubsys__bluetooth__host.a(hci_core.c.obj)
 .debug_aranges
                0x00000000000009a0       0x60 subsys/bluetooth/controller/libsubsys__bluetooth__controller.a(mem.c.obj)
 .debug_aranges
                0x0000000000000a00       0x38 subsys/bluetooth/controller/libsubsys__bluetooth__controller.a(memq.c.obj)
 .debug_aranges
                0x0000000000000a38       0x38 subsys/bluetooth/controller/libsubsys__bluetooth__controller.a(mayfly.c.obj)
 .debug_aranges
                0x0000000000000a70       0x20 subsys/bluetooth/controller/libsubsys__bluetooth__controller.a(util.c.obj)
 .debug_aranges
                0x0000000000000a90       0x98 subsys/bluetooth/controller/libsubsys__bluetooth__controller.a(ticker.c.obj)
 .debug_aranges
                0x0000000000000b28       0x28 subsys/bluetooth/controller/libsubsys__bluetooth__controller.a(ll_addr.c.obj)
 .debug_aranges
                0x0000000000000b50       0x28 subsys/bluetooth/controller/libsubsys__bluetooth__controller.a(ll_tx_pwr.c.obj)
 .debug_aranges
                0x0000000000000b78       0x30 subsys/bluetooth/controller/libsubsys__bluetooth__controller.a(crypto.c.obj)
 .debug_aranges
                0x0000000000000ba8       0x40 subsys/bluetooth/controller/libsubsys__bluetooth__controller.a(hci_driver.c.obj)
 .debug_aranges
                0x0000000000000be8       0x88 subsys/bluetooth/controller/libsubsys__bluetooth__controller.a(hci.c.obj)
 .debug_aranges
                0x0000000000000c70      0x370 subsys/bluetooth/controller/libsubsys__bluetooth__controller.a(ctrl.c.obj)
 .debug_aranges
                0x0000000000000fe0       0x58 subsys/bluetooth/controller/libsubsys__bluetooth__controller.a(ll.c.obj)
 .debug_aranges
                0x0000000000001038       0x40 subsys/bluetooth/controller/libsubsys__bluetooth__controller.a(ll_adv.c.obj)
 .debug_aranges
                0x0000000000001078       0x48 subsys/bluetooth/controller/libsubsys__bluetooth__controller.a(ll_filter.c.obj)
 .debug_aranges
                0x00000000000010c0       0x40 subsys/bluetooth/controller/libsubsys__bluetooth__controller.a(cntr.c.obj)
 .debug_aranges
                0x0000000000001100       0x58 subsys/bluetooth/controller/libsubsys__bluetooth__controller.a(rand.c.obj)
 .debug_aranges
                0x0000000000001158       0x50 subsys/bluetooth/controller/libsubsys__bluetooth__controller.a(ecb.c.obj)
 .debug_aranges
                0x00000000000011a8      0x230 subsys/bluetooth/controller/libsubsys__bluetooth__controller.a(radio.c.obj)
 .debug_aranges
                0x00000000000013d8       0x38 subsys/bluetooth/controller/libsubsys__bluetooth__controller.a(mayfly.c.obj)
 .debug_aranges
                0x0000000000001410       0x30 subsys/bluetooth/controller/libsubsys__bluetooth__controller.a(ticker.c.obj)
 .debug_aranges
                0x0000000000001440      0x168 subsys/net/libsubsys__net.a(buf.c.obj)
 .debug_aranges
                0x00000000000015a8       0x30 kernel/libkernel.a(device.c.obj)
 .debug_aranges
                0x00000000000015d8       0x20 kernel/libkernel.a(errno.c.obj)
 .debug_aranges
                0x00000000000015f8       0x30 kernel/libkernel.a(idle.c.obj)
 .debug_aranges
                0x0000000000001628       0x48 kernel/libkernel.a(init.c.obj)
 .debug_aranges
                0x0000000000001670       0x50 kernel/libkernel.a(mempool.c.obj)
 .debug_aranges
                0x00000000000016c0       0x38 kernel/libkernel.a(mutex.c.obj)
 .debug_aranges
                0x00000000000016f8       0x58 kernel/libkernel.a(queue.c.obj)
 .debug_aranges
                0x0000000000001750       0xc0 kernel/libkernel.a(sched.c.obj)
 .debug_aranges
                0x0000000000001810       0x40 kernel/libkernel.a(sem.c.obj)
 .debug_aranges
                0x0000000000001850       0x50 kernel/libkernel.a(sys_clock.c.obj)
 .debug_aranges
                0x00000000000018a0       0x20 kernel/libkernel.a(system_work_q.c.obj)
 .debug_aranges
                0x00000000000018c0       0xc8 kernel/libkernel.a(thread.c.obj)
 .debug_aranges
                0x0000000000001988       0x50 kernel/libkernel.a(work_q.c.obj)
 .debug_aranges
                0x00000000000019d8       0x70 kernel/libkernel.a(timer.c.obj)
 .debug_aranges
                0x0000000000001a48       0x78 kernel/libkernel.a(atomic_c.c.obj)
 .debug_aranges
                0x0000000000001ac0       0x60 kernel/libkernel.a(poll.c.obj)
 .debug_aranges
                0x0000000000001b20       0x20 CMakeFiles/offsets.dir/arch/arm/core/offsets/offsets.c.obj
 .debug_aranges
                0x0000000000001b40       0x20 /opt/zephyr-sdk/sysroots/armv5-zephyr-eabi/usr/lib/arm-zephyr-eabi/6.2.0/armv6-m/libgcc.a(_thumb1_case_sqi.o)
 .debug_aranges
                0x0000000000001b60       0x20 /opt/zephyr-sdk/sysroots/armv5-zephyr-eabi/usr/lib/arm-zephyr-eabi/6.2.0/armv6-m/libgcc.a(_thumb1_case_uqi.o)
 .debug_aranges
                0x0000000000001b80       0x20 /opt/zephyr-sdk/sysroots/armv5-zephyr-eabi/usr/lib/arm-zephyr-eabi/6.2.0/armv6-m/libgcc.a(_thumb1_case_shi.o)
 .debug_aranges
                0x0000000000001ba0       0x20 /opt/zephyr-sdk/sysroots/armv5-zephyr-eabi/usr/lib/arm-zephyr-eabi/6.2.0/armv6-m/libgcc.a(_thumb1_case_uhi.o)
 .debug_aranges
                0x0000000000001bc0       0x20 /opt/zephyr-sdk/sysroots/armv5-zephyr-eabi/usr/lib/arm-zephyr-eabi/6.2.0/armv6-m/libgcc.a(_udivsi3.o)
 .debug_aranges
                0x0000000000001be0       0x20 /opt/zephyr-sdk/sysroots/armv5-zephyr-eabi/usr/lib/arm-zephyr-eabi/6.2.0/armv6-m/libgcc.a(_divsi3.o)
 .debug_aranges
                0x0000000000001c00       0x20 /opt/zephyr-sdk/sysroots/armv5-zephyr-eabi/usr/lib/arm-zephyr-eabi/6.2.0/armv6-m/libgcc.a(_dvmd_tls.o)
 .debug_aranges
                0x0000000000001c20       0x20 /opt/zephyr-sdk/sysroots/armv5-zephyr-eabi/usr/lib/arm-zephyr-eabi/6.2.0/armv6-m/libgcc.a(_lshrdi3.o)
 .debug_aranges
                0x0000000000001c40       0x20 /opt/zephyr-sdk/sysroots/armv5-zephyr-eabi/usr/lib/arm-zephyr-eabi/6.2.0/armv6-m/libgcc.a(_ashldi3.o)
 .debug_aranges
                0x0000000000001c60       0x20 /opt/zephyr-sdk/sysroots/armv5-zephyr-eabi/usr/lib/arm-zephyr-eabi/6.2.0/armv6-m/libgcc.a(_aeabi_uldivmod.o)
 .debug_aranges
                0x0000000000001c80       0x20 /opt/zephyr-sdk/sysroots/armv5-zephyr-eabi/usr/lib/arm-zephyr-eabi/6.2.0/armv6-m/libgcc.a(_muldi3.o)
 .debug_aranges
                0x0000000000001ca0       0x20 /opt/zephyr-sdk/sysroots/armv5-zephyr-eabi/usr/lib/arm-zephyr-eabi/6.2.0/armv6-m/libgcc.a(_ffssi2.o)
 .debug_aranges
                0x0000000000001cc0       0x20 /opt/zephyr-sdk/sysroots/armv5-zephyr-eabi/usr/lib/arm-zephyr-eabi/6.2.0/armv6-m/libgcc.a(_popcountsi2.o)
 .debug_aranges
                0x0000000000001ce0       0x20 /opt/zephyr-sdk/sysroots/armv5-zephyr-eabi/usr/lib/arm-zephyr-eabi/6.2.0/armv6-m/libgcc.a(_fixunsdfsi.o)
 .debug_aranges
                0x0000000000001d00       0x20 /opt/zephyr-sdk/sysroots/armv5-zephyr-eabi/usr/lib/arm-zephyr-eabi/6.2.0/armv6-m/libgcc.a(_udivmoddi4.o)
 .debug_aranges
                0x0000000000001d20       0x20 /opt/zephyr-sdk/sysroots/armv5-zephyr-eabi/usr/lib/arm-zephyr-eabi/6.2.0/armv6-m/libgcc.a(adddf3.o)
 .debug_aranges
                0x0000000000001d40       0x20 /opt/zephyr-sdk/sysroots/armv5-zephyr-eabi/usr/lib/arm-zephyr-eabi/6.2.0/armv6-m/libgcc.a(divdf3.o)
 .debug_aranges
                0x0000000000001d60       0x20 /opt/zephyr-sdk/sysroots/armv5-zephyr-eabi/usr/lib/arm-zephyr-eabi/6.2.0/armv6-m/libgcc.a(subdf3.o)
 .debug_aranges
                0x0000000000001d80       0x20 /opt/zephyr-sdk/sysroots/armv5-zephyr-eabi/usr/lib/arm-zephyr-eabi/6.2.0/armv6-m/libgcc.a(fixdfsi.o)
 .debug_aranges
                0x0000000000001da0       0x20 /opt/zephyr-sdk/sysroots/armv5-zephyr-eabi/usr/lib/arm-zephyr-eabi/6.2.0/armv6-m/libgcc.a(floatsidf.o)
 .debug_aranges
                0x0000000000001dc0       0x20 /opt/zephyr-sdk/sysroots/armv5-zephyr-eabi/usr/lib/arm-zephyr-eabi/6.2.0/armv6-m/libgcc.a(_arm_cmpdf2.o)
 .debug_aranges
                0x0000000000001de0       0x20 /opt/zephyr-sdk/sysroots/armv5-zephyr-eabi/usr/lib/arm-zephyr-eabi/6.2.0/armv6-m/libgcc.a(_clzsi2.o)
 .debug_aranges
                0x0000000000001e00       0x20 /opt/zephyr-sdk/sysroots/armv5-zephyr-eabi/usr/lib/arm-zephyr-eabi/6.2.0/armv6-m/libgcc.a(_clzdi2.o)
 .debug_aranges
                0x0000000000001e20       0x20 /opt/zephyr-sdk/sysroots/armv5-zephyr-eabi/usr/lib/arm-zephyr-eabi/6.2.0/armv6-m/libgcc.a(_ctzsi2.o)
 .debug_aranges
                0x0000000000001e40       0x20 /opt/zephyr-sdk/sysroots/armv5-zephyr-eabi/usr/lib/arm-zephyr-eabi/6.2.0/armv6-m/libgcc.a(eqdf2.o)
 .debug_aranges
                0x0000000000001e60       0x20 /opt/zephyr-sdk/sysroots/armv5-zephyr-eabi/usr/lib/arm-zephyr-eabi/6.2.0/armv6-m/libgcc.a(gedf2.o)
 .debug_aranges
                0x0000000000001e80       0x20 /opt/zephyr-sdk/sysroots/armv5-zephyr-eabi/usr/lib/arm-zephyr-eabi/6.2.0/armv6-m/libgcc.a(ledf2.o)

.debug_line     0x0000000000000000    0x14cca
 .debug_line    0x0000000000000000       0xc5 CMakeFiles/kernel_elf.dir/isr_tables.c.obj
 .debug_line    0x00000000000000c5      0x266 ../libapp.a(string.c.obj)
 .debug_line    0x000000000000032b      0x45f ../libapp.a(prf.c.obj)
 .debug_line    0x000000000000078a      0x1a2 ../libapp.a(stdout_console.c.obj)
 .debug_line    0x000000000000092c      0x163 ../libapp.a(fprintf.c.obj)
 .debug_line    0x0000000000000a8f      0x3c9 ../libapp.a(main.c.obj)
 .debug_line    0x0000000000000e58       0xba libzephyr.a(isr_tables.c.obj)
 .debug_line    0x0000000000000f12      0x251 libzephyr.a(soc.c.obj)
 .debug_line    0x0000000000001163       0x75 libzephyr.a(exc_exit.S.obj)
 .debug_line    0x00000000000011d8      0x245 libzephyr.a(irq_init.c.obj)
 .debug_line    0x000000000000141d       0xd8 libzephyr.a(swap.S.obj)
 .debug_line    0x00000000000014f5      0x378 libzephyr.a(fault.c.obj)
 .debug_line    0x000000000000186d      0x3f8 libzephyr.a(irq_manage.c.obj)
 .debug_line    0x0000000000001c65      0x38f libzephyr.a(thread.c.obj)
 .debug_line    0x0000000000001ff4       0xb4 libzephyr.a(cpu_idle.S.obj)
 .debug_line    0x00000000000020a8       0x68 libzephyr.a(fault_s.S.obj)
 .debug_line    0x0000000000002110      0x34d libzephyr.a(fatal.c.obj)
 .debug_line    0x000000000000245d      0x32b libzephyr.a(sys_fatal_error_handler.c.obj)
 .debug_line    0x0000000000002788      0x337 libzephyr.a(thread_abort.c.obj)
 .debug_line    0x0000000000002abf       0x80 libzephyr.a(isr_wrapper.S.obj)
 .debug_line    0x0000000000002b3f       0x6f libzephyr.a(reset.S.obj)
 .debug_line    0x0000000000002bae       0x6a libzephyr.a(nmi_on_reset.S.obj)
 .debug_line    0x0000000000002c18      0x252 libzephyr.a(prep_c.c.obj)
 .debug_line    0x0000000000002e6a      0x187 libzephyr.a(nmi.c.obj)
 .debug_line    0x0000000000002ff1      0x3bc libzephyr.a(printk.c.obj)
 .debug_line    0x00000000000033ad      0x145 libzephyr.a(configs.c.obj)
 .debug_line    0x00000000000034f2      0x295 libzephyr.a(uart_console.c.obj)
 .debug_line    0x0000000000003787      0x589 libzephyr.a(mb_display.c.obj)
 .debug_line    0x0000000000003d10       0xbd libzephyr.a(mb_font.c.obj)
 .debug_line    0x0000000000003dcd      0x3f9 libzephyr.a(nrf5_power_clock.c.obj)
 .debug_line    0x00000000000041c6      0x42f libzephyr.a(gpio_nrf5.c.obj)
 .debug_line    0x00000000000045f5      0x31d libzephyr.a(i2c_bitbang.c.obj)
 .debug_line    0x0000000000004912      0x283 libzephyr.a(i2c_gpio.c.obj)
 .debug_line    0x0000000000004b95      0x4a4 libzephyr.a(i2c_nrf5.c.obj)
 .debug_line    0x0000000000005039      0x28e libzephyr.a(pwm_nrf5_sw.c.obj)
 .debug_line    0x00000000000052c7      0x345 libzephyr.a(temp_nrf5.c.obj)
 .debug_line    0x000000000000560c      0x2e3 libzephyr.a(uart_nrf5.c.obj)
 .debug_line    0x00000000000058ef      0x180 libzephyr.a(sys_clock_init.c.obj)
 .debug_line    0x0000000000005a6f      0x3ba libzephyr.a(nrf_rtc_timer.c.obj)
 .debug_line    0x0000000000005e29      0xd55 subsys/bluetooth/host/libsubsys__bluetooth__host.a(hci_core.c.obj)
 .debug_line    0x0000000000006b7e      0x1c7 subsys/bluetooth/controller/libsubsys__bluetooth__controller.a(mem.c.obj)
 .debug_line    0x0000000000006d45       0xc6 subsys/bluetooth/controller/libsubsys__bluetooth__controller.a(memq.c.obj)
 .debug_line    0x0000000000006e0b      0x177 subsys/bluetooth/controller/libsubsys__bluetooth__controller.a(mayfly.c.obj)
 .debug_line    0x0000000000006f82       0xa8 subsys/bluetooth/controller/libsubsys__bluetooth__controller.a(util.c.obj)
 .debug_line    0x000000000000702a      0x7f4 subsys/bluetooth/controller/libsubsys__bluetooth__controller.a(ticker.c.obj)
 .debug_line    0x000000000000781e      0x147 subsys/bluetooth/controller/libsubsys__bluetooth__controller.a(ll_addr.c.obj)
 .debug_line    0x0000000000007965       0xb5 subsys/bluetooth/controller/libsubsys__bluetooth__controller.a(ll_tx_pwr.c.obj)
 .debug_line    0x0000000000007a1a      0x383 subsys/bluetooth/controller/libsubsys__bluetooth__controller.a(crypto.c.obj)
 .debug_line    0x0000000000007d9d      0x48e subsys/bluetooth/controller/libsubsys__bluetooth__controller.a(hci_driver.c.obj)
 .debug_line    0x000000000000822b      0x7e2 subsys/bluetooth/controller/libsubsys__bluetooth__controller.a(hci.c.obj)
 .debug_line    0x0000000000008a0d     0x20c9 subsys/bluetooth/controller/libsubsys__bluetooth__controller.a(ctrl.c.obj)
 .debug_line    0x000000000000aad6      0x4ff subsys/bluetooth/controller/libsubsys__bluetooth__controller.a(ll.c.obj)
 .debug_line    0x000000000000afd5      0x353 subsys/bluetooth/controller/libsubsys__bluetooth__controller.a(ll_adv.c.obj)
 .debug_line    0x000000000000b328      0x353 subsys/bluetooth/controller/libsubsys__bluetooth__controller.a(ll_filter.c.obj)
 .debug_line    0x000000000000b67b      0x2dc subsys/bluetooth/controller/libsubsys__bluetooth__controller.a(cntr.c.obj)
 .debug_line    0x000000000000b957      0x381 subsys/bluetooth/controller/libsubsys__bluetooth__controller.a(rand.c.obj)
 .debug_line    0x000000000000bcd8      0x490 subsys/bluetooth/controller/libsubsys__bluetooth__controller.a(ecb.c.obj)
 .debug_line    0x000000000000c168      0x9ba subsys/bluetooth/controller/libsubsys__bluetooth__controller.a(radio.c.obj)
 .debug_line    0x000000000000cb22      0x364 subsys/bluetooth/controller/libsubsys__bluetooth__controller.a(mayfly.c.obj)
 .debug_line    0x000000000000ce86      0x2ea subsys/bluetooth/controller/libsubsys__bluetooth__controller.a(ticker.c.obj)
 .debug_line    0x000000000000d170      0x8f3 subsys/net/libsubsys__net.a(buf.c.obj)
 .debug_line    0x000000000000da63      0x1d5 kernel/libkernel.a(device.c.obj)
 .debug_line    0x000000000000dc38      0x24a kernel/libkernel.a(errno.c.obj)
 .debug_line    0x000000000000de82      0x35c kernel/libkernel.a(idle.c.obj)
 .debug_line    0x000000000000e1de      0x482 kernel/libkernel.a(init.c.obj)
 .debug_line    0x000000000000e660      0x6c7 kernel/libkernel.a(mempool.c.obj)
 .debug_line    0x000000000000ed27      0x4c3 kernel/libkernel.a(mutex.c.obj)
 .debug_line    0x000000000000f1ea      0x46f kernel/libkernel.a(queue.c.obj)
 .debug_line    0x000000000000f659      0x875 kernel/libkernel.a(sched.c.obj)
 .debug_line    0x000000000000fece      0x465 kernel/libkernel.a(sem.c.obj)
 .debug_line    0x0000000000010333      0x58b kernel/libkernel.a(sys_clock.c.obj)
 .debug_line    0x00000000000108be      0x155 kernel/libkernel.a(system_work_q.c.obj)
 .debug_line    0x0000000000010a13      0x814 kernel/libkernel.a(thread.c.obj)
 .debug_line    0x0000000000011227      0x5fd kernel/libkernel.a(work_q.c.obj)
 .debug_line    0x0000000000011824      0x630 kernel/libkernel.a(timer.c.obj)
 .debug_line    0x0000000000011e54      0x293 kernel/libkernel.a(atomic_c.c.obj)
 .debug_line    0x00000000000120e7      0x6ba kernel/libkernel.a(poll.c.obj)
 .debug_line    0x00000000000127a1      0x305 CMakeFiles/offsets.dir/arch/arm/core/offsets/offsets.c.obj
 .debug_line    0x0000000000012aa6       0x91 /opt/zephyr-sdk/sysroots/armv5-zephyr-eabi/usr/lib/arm-zephyr-eabi/6.2.0/armv6-m/libgcc.a(_thumb1_case_sqi.o)
 .debug_line    0x0000000000012b37       0x91 /opt/zephyr-sdk/sysroots/armv5-zephyr-eabi/usr/lib/arm-zephyr-eabi/6.2.0/armv6-m/libgcc.a(_thumb1_case_uqi.o)
 .debug_line    0x0000000000012bc8       0x92 /opt/zephyr-sdk/sysroots/armv5-zephyr-eabi/usr/lib/arm-zephyr-eabi/6.2.0/armv6-m/libgcc.a(_thumb1_case_shi.o)
 .debug_line    0x0000000000012c5a       0x92 /opt/zephyr-sdk/sysroots/armv5-zephyr-eabi/usr/lib/arm-zephyr-eabi/6.2.0/armv6-m/libgcc.a(_thumb1_case_uhi.o)
 .debug_line    0x0000000000012cec       0xa0 /opt/zephyr-sdk/sysroots/armv5-zephyr-eabi/usr/lib/arm-zephyr-eabi/6.2.0/armv6-m/libgcc.a(_udivsi3.o)
 .debug_line    0x0000000000012d8c       0xae /opt/zephyr-sdk/sysroots/armv5-zephyr-eabi/usr/lib/arm-zephyr-eabi/6.2.0/armv6-m/libgcc.a(_divsi3.o)
 .debug_line    0x0000000000012e3a       0x89 /opt/zephyr-sdk/sysroots/armv5-zephyr-eabi/usr/lib/arm-zephyr-eabi/6.2.0/armv6-m/libgcc.a(_dvmd_tls.o)
 .debug_line    0x0000000000012ec3       0x94 /opt/zephyr-sdk/sysroots/armv5-zephyr-eabi/usr/lib/arm-zephyr-eabi/6.2.0/armv6-m/libgcc.a(_lshrdi3.o)
 .debug_line    0x0000000000012f57       0x94 /opt/zephyr-sdk/sysroots/armv5-zephyr-eabi/usr/lib/arm-zephyr-eabi/6.2.0/armv6-m/libgcc.a(_ashldi3.o)
 .debug_line    0x0000000000012feb       0x94 /opt/zephyr-sdk/sysroots/armv5-zephyr-eabi/usr/lib/arm-zephyr-eabi/6.2.0/armv6-m/libgcc.a(_aeabi_uldivmod.o)
 .debug_line    0x000000000001307f      0x1e4 /opt/zephyr-sdk/sysroots/armv5-zephyr-eabi/usr/lib/arm-zephyr-eabi/6.2.0/armv6-m/libgcc.a(_muldi3.o)
 .debug_line    0x0000000000013263      0x1b9 /opt/zephyr-sdk/sysroots/armv5-zephyr-eabi/usr/lib/arm-zephyr-eabi/6.2.0/armv6-m/libgcc.a(_ffssi2.o)
 .debug_line    0x000000000001341c      0x1c2 /opt/zephyr-sdk/sysroots/armv5-zephyr-eabi/usr/lib/arm-zephyr-eabi/6.2.0/armv6-m/libgcc.a(_popcountsi2.o)
 .debug_line    0x00000000000135de      0x1bb /opt/zephyr-sdk/sysroots/armv5-zephyr-eabi/usr/lib/arm-zephyr-eabi/6.2.0/armv6-m/libgcc.a(_fixunsdfsi.o)
 .debug_line    0x0000000000013799      0x1f3 /opt/zephyr-sdk/sysroots/armv5-zephyr-eabi/usr/lib/arm-zephyr-eabi/6.2.0/armv6-m/libgcc.a(_udivmoddi4.o)
 .debug_line    0x000000000001398c      0x3cc /opt/zephyr-sdk/sysroots/armv5-zephyr-eabi/usr/lib/arm-zephyr-eabi/6.2.0/armv6-m/libgcc.a(adddf3.o)
 .debug_line    0x0000000000013d58      0x2ed /opt/zephyr-sdk/sysroots/armv5-zephyr-eabi/usr/lib/arm-zephyr-eabi/6.2.0/armv6-m/libgcc.a(divdf3.o)
 .debug_line    0x0000000000014045      0x3e2 /opt/zephyr-sdk/sysroots/armv5-zephyr-eabi/usr/lib/arm-zephyr-eabi/6.2.0/armv6-m/libgcc.a(subdf3.o)
 .debug_line    0x0000000000014427      0x11c /opt/zephyr-sdk/sysroots/armv5-zephyr-eabi/usr/lib/arm-zephyr-eabi/6.2.0/armv6-m/libgcc.a(fixdfsi.o)
 .debug_line    0x0000000000014543      0x10f /opt/zephyr-sdk/sysroots/armv5-zephyr-eabi/usr/lib/arm-zephyr-eabi/6.2.0/armv6-m/libgcc.a(floatsidf.o)
 .debug_line    0x0000000000014652       0xa1 /opt/zephyr-sdk/sysroots/armv5-zephyr-eabi/usr/lib/arm-zephyr-eabi/6.2.0/armv6-m/libgcc.a(_arm_cmpdf2.o)
 .debug_line    0x00000000000146f3       0x9d /opt/zephyr-sdk/sysroots/armv5-zephyr-eabi/usr/lib/arm-zephyr-eabi/6.2.0/armv6-m/libgcc.a(_clzsi2.o)
 .debug_line    0x0000000000014790       0x93 /opt/zephyr-sdk/sysroots/armv5-zephyr-eabi/usr/lib/arm-zephyr-eabi/6.2.0/armv6-m/libgcc.a(_clzdi2.o)
 .debug_line    0x0000000000014823       0x9f /opt/zephyr-sdk/sysroots/armv5-zephyr-eabi/usr/lib/arm-zephyr-eabi/6.2.0/armv6-m/libgcc.a(_ctzsi2.o)
 .debug_line    0x00000000000148c2      0x143 /opt/zephyr-sdk/sysroots/armv5-zephyr-eabi/usr/lib/arm-zephyr-eabi/6.2.0/armv6-m/libgcc.a(eqdf2.o)
 .debug_line    0x0000000000014a05      0x166 /opt/zephyr-sdk/sysroots/armv5-zephyr-eabi/usr/lib/arm-zephyr-eabi/6.2.0/armv6-m/libgcc.a(gedf2.o)
 .debug_line    0x0000000000014b6b      0x15f /opt/zephyr-sdk/sysroots/armv5-zephyr-eabi/usr/lib/arm-zephyr-eabi/6.2.0/armv6-m/libgcc.a(ledf2.o)

.debug_str      0x0000000000000000     0xd1cb
 .debug_str     0x0000000000000000      0x1b2 CMakeFiles/kernel_elf.dir/isr_tables.c.obj
                                        0x1cb (size before relaxing)
 .debug_str     0x00000000000001b2       0xd0 ../libapp.a(string.c.obj)
                                        0x1e2 (size before relaxing)
 .debug_str     0x0000000000000282      0x1db ../libapp.a(prf.c.obj)
                                        0x39d (size before relaxing)
 .debug_str     0x000000000000045d       0xa9 ../libapp.a(stdout_console.c.obj)
                                        0x1f2 (size before relaxing)
 .debug_str     0x0000000000000506       0x4e ../libapp.a(fprintf.c.obj)
                                        0x1ba (size before relaxing)
 .debug_str     0x0000000000000554      0xa75 ../libapp.a(main.c.obj)
                                        0xe0d (size before relaxing)
 .debug_str     0x0000000000000fc9       0x7a libzephyr.a(isr_tables.c.obj)
                                        0x203 (size before relaxing)
 .debug_str     0x0000000000001043      0x170 libzephyr.a(soc.c.obj)
                                        0x5de (size before relaxing)
 .debug_str     0x00000000000011b3      0x23f libzephyr.a(irq_init.c.obj)
                                        0x6bb (size before relaxing)
 .debug_str     0x00000000000013f2      0x125 libzephyr.a(fault.c.obj)
                                        0x5fc (size before relaxing)
 .debug_str     0x0000000000001517      0x156 libzephyr.a(irq_manage.c.obj)
                                        0x8b7 (size before relaxing)
 .debug_str     0x000000000000166d       0xf3 libzephyr.a(thread.c.obj)
                                        0x63b (size before relaxing)
 .debug_str     0x0000000000001760       0x8e libzephyr.a(fatal.c.obj)
                                        0x5e1 (size before relaxing)
 .debug_str     0x00000000000017ee       0x89 libzephyr.a(sys_fatal_error_handler.c.obj)
                                        0x5ce (size before relaxing)
 .debug_str     0x0000000000001877       0x88 libzephyr.a(thread_abort.c.obj)
                                        0x60b (size before relaxing)
 .debug_str     0x00000000000018ff      0x1b3 libzephyr.a(prep_c.c.obj)
                                        0x613 (size before relaxing)
 .debug_str     0x0000000000001ab2       0x4f libzephyr.a(nmi.c.obj)
                                        0x42f (size before relaxing)
 .debug_str     0x0000000000001b01      0x25f libzephyr.a(printk.c.obj)
                                        0x6e3 (size before relaxing)
 .debug_str     0x0000000000001d60       0x64 libzephyr.a(configs.c.obj)
                                        0x13d (size before relaxing)
 .debug_str     0x0000000000001dc4       0xf3 libzephyr.a(uart_console.c.obj)
                                        0x5ff (size before relaxing)
 .debug_str     0x0000000000001eb7      0x213 libzephyr.a(mb_display.c.obj)
                                        0x979 (size before relaxing)
 .debug_str     0x00000000000020ca       0x2e libzephyr.a(mb_font.c.obj)
                                        0x1cb (size before relaxing)
 .debug_str     0x00000000000020f8      0x450 libzephyr.a(nrf5_power_clock.c.obj)
                                        0xb63 (size before relaxing)
 .debug_str     0x0000000000002548      0x3d4 libzephyr.a(gpio_nrf5.c.obj)
                                        0xa8a (size before relaxing)
 .debug_str     0x000000000000291c      0x19d libzephyr.a(i2c_bitbang.c.obj)
                                        0x631 (size before relaxing)
 .debug_str     0x0000000000002ab9      0x184 libzephyr.a(i2c_gpio.c.obj)
                                        0x860 (size before relaxing)
 .debug_str     0x0000000000002c3d      0x2a3 libzephyr.a(i2c_nrf5.c.obj)
                                        0xa6b (size before relaxing)
 .debug_str     0x0000000000002ee0      0x275 libzephyr.a(pwm_nrf5_sw.c.obj)
                                        0x837 (size before relaxing)
 .debug_str     0x0000000000003155      0x15e libzephyr.a(temp_nrf5.c.obj)
                                        0xc89 (size before relaxing)
 .debug_str     0x00000000000032b3      0x1e8 libzephyr.a(uart_nrf5.c.obj)
                                        0x915 (size before relaxing)
 .debug_str     0x000000000000349b       0x87 libzephyr.a(sys_clock_init.c.obj)
                                        0x52a (size before relaxing)
 .debug_str     0x0000000000003522      0x198 libzephyr.a(nrf_rtc_timer.c.obj)
                                        0x9c2 (size before relaxing)
 .debug_str     0x00000000000036ba     0x1611 subsys/bluetooth/host/libsubsys__bluetooth__host.a(hci_core.c.obj)
                                       0x1ea6 (size before relaxing)
 .debug_str     0x0000000000004ccb       0xd9 subsys/bluetooth/controller/libsubsys__bluetooth__controller.a(mem.c.obj)
                                        0x284 (size before relaxing)
 .debug_str     0x0000000000004da4       0x81 subsys/bluetooth/controller/libsubsys__bluetooth__controller.a(memq.c.obj)
                                        0x1d7 (size before relaxing)
 .debug_str     0x0000000000004e25      0x105 subsys/bluetooth/controller/libsubsys__bluetooth__controller.a(mayfly.c.obj)
                                        0x2df (size before relaxing)
 .debug_str     0x0000000000004f2a       0x6a subsys/bluetooth/controller/libsubsys__bluetooth__controller.a(util.c.obj)
                                        0x1b8 (size before relaxing)
 .debug_str     0x0000000000004f94      0x811 subsys/bluetooth/controller/libsubsys__bluetooth__controller.a(ticker.c.obj)
                                        0xdb5 (size before relaxing)
 .debug_str     0x00000000000057a5       0x8f subsys/bluetooth/controller/libsubsys__bluetooth__controller.a(ll_addr.c.obj)
                                        0x1fd (size before relaxing)
 .debug_str     0x0000000000005834       0x6d subsys/bluetooth/controller/libsubsys__bluetooth__controller.a(ll_tx_pwr.c.obj)
                                        0x1d1 (size before relaxing)
 .debug_str     0x00000000000058a1       0xf3 subsys/bluetooth/controller/libsubsys__bluetooth__controller.a(crypto.c.obj)
                                        0x659 (size before relaxing)
 .debug_str     0x0000000000005994      0x304 subsys/bluetooth/controller/libsubsys__bluetooth__controller.a(hci_driver.c.obj)
                                        0xb99 (size before relaxing)
 .debug_str     0x0000000000005c98     0x111e subsys/bluetooth/controller/libsubsys__bluetooth__controller.a(hci.c.obj)
                                       0x2294 (size before relaxing)
 .debug_str     0x0000000000006db6     0x1df1 subsys/bluetooth/controller/libsubsys__bluetooth__controller.a(ctrl.c.obj)
                                       0x3756 (size before relaxing)
 .debug_str     0x0000000000008ba7      0x221 subsys/bluetooth/controller/libsubsys__bluetooth__controller.a(ll.c.obj)
                                        0xa29 (size before relaxing)
 .debug_str     0x0000000000008dc8       0xb3 subsys/bluetooth/controller/libsubsys__bluetooth__controller.a(ll_adv.c.obj)
                                        0x9fa (size before relaxing)
 .debug_str     0x0000000000008e7b       0x92 subsys/bluetooth/controller/libsubsys__bluetooth__controller.a(ll_filter.c.obj)
                                        0x74a (size before relaxing)
 .debug_str     0x0000000000008f0d       0x57 subsys/bluetooth/controller/libsubsys__bluetooth__controller.a(cntr.c.obj)
                                        0x6b1 (size before relaxing)
 .debug_str     0x0000000000008f64       0x8d subsys/bluetooth/controller/libsubsys__bluetooth__controller.a(rand.c.obj)
                                        0x6a9 (size before relaxing)
 .debug_str     0x0000000000008ff1      0x173 subsys/bluetooth/controller/libsubsys__bluetooth__controller.a(ecb.c.obj)
                                        0x96c (size before relaxing)
 .debug_str     0x0000000000009164      0x544 subsys/bluetooth/controller/libsubsys__bluetooth__controller.a(radio.c.obj)
                                       0x1282 (size before relaxing)
 .debug_str     0x00000000000096a8       0x42 subsys/bluetooth/controller/libsubsys__bluetooth__controller.a(mayfly.c.obj)
                                        0x805 (size before relaxing)
 .debug_str     0x00000000000096ea       0xaf subsys/bluetooth/controller/libsubsys__bluetooth__controller.a(ticker.c.obj)
                                        0x6eb (size before relaxing)
 .debug_str     0x0000000000009799      0x457 subsys/net/libsubsys__net.a(buf.c.obj)
                                        0xbd5 (size before relaxing)
 .debug_str     0x0000000000009bf0      0x15f kernel/libkernel.a(device.c.obj)
                                        0x5d3 (size before relaxing)
 .debug_str     0x0000000000009d4f       0x39 kernel/libkernel.a(errno.c.obj)
                                        0x531 (size before relaxing)
 .debug_str     0x0000000000009d88      0x110 kernel/libkernel.a(idle.c.obj)
                                        0x6a4 (size before relaxing)
 .debug_str     0x0000000000009e98      0x19c kernel/libkernel.a(init.c.obj)
                                        0xb1c (size before relaxing)
 .debug_str     0x000000000000a034      0x306 kernel/libkernel.a(mempool.c.obj)
                                        0xa44 (size before relaxing)
 .debug_str     0x000000000000a33a      0x1c2 kernel/libkernel.a(mutex.c.obj)
                                        0x96e (size before relaxing)
 .debug_str     0x000000000000a4fc      0x108 kernel/libkernel.a(queue.c.obj)
                                        0x901 (size before relaxing)
 .debug_str     0x000000000000a604      0x3a7 kernel/libkernel.a(sched.c.obj)
                                        0xc06 (size before relaxing)
 .debug_str     0x000000000000a9ab       0x85 kernel/libkernel.a(sem.c.obj)
                                        0x975 (size before relaxing)
 .debug_str     0x000000000000aa30       0xda kernel/libkernel.a(sys_clock.c.obj)
                                        0x8af (size before relaxing)
 .debug_str     0x000000000000ab0a       0xa7 kernel/libkernel.a(system_work_q.c.obj)
                                        0x556 (size before relaxing)
 .debug_str     0x000000000000abb1      0x2a5 kernel/libkernel.a(thread.c.obj)
                                        0xcb9 (size before relaxing)
 .debug_str     0x000000000000ae56       0xbb kernel/libkernel.a(work_q.c.obj)
                                        0xaa8 (size before relaxing)
 .debug_str     0x000000000000af11       0xfb kernel/libkernel.a(timer.c.obj)
                                        0xa30 (size before relaxing)
 .debug_str     0x000000000000b00c       0x95 kernel/libkernel.a(atomic_c.c.obj)
                                        0x264 (size before relaxing)
 .debug_str     0x000000000000b0a1      0x1e4 kernel/libkernel.a(poll.c.obj)
                                        0xbe7 (size before relaxing)
 .debug_str     0x000000000000b285      0xbd9 CMakeFiles/offsets.dir/arch/arm/core/offsets/offsets.c.obj
                                       0x10ca (size before relaxing)
 .debug_str     0x000000000000be5e      0xba2 /opt/zephyr-sdk/sysroots/armv5-zephyr-eabi/usr/lib/arm-zephyr-eabi/6.2.0/armv6-m/libgcc.a(_muldi3.o)
                                        0xc97 (size before relaxing)
 .debug_str     0x000000000000ca00        0x9 /opt/zephyr-sdk/sysroots/armv5-zephyr-eabi/usr/lib/arm-zephyr-eabi/6.2.0/armv6-m/libgcc.a(_ffssi2.o)
                                        0xc51 (size before relaxing)
 .debug_str     0x000000000000ca09        0xe /opt/zephyr-sdk/sysroots/armv5-zephyr-eabi/usr/lib/arm-zephyr-eabi/6.2.0/armv6-m/libgcc.a(_popcountsi2.o)
                                        0xc50 (size before relaxing)
 .debug_str     0x000000000000ca17       0x14 /opt/zephyr-sdk/sysroots/armv5-zephyr-eabi/usr/lib/arm-zephyr-eabi/6.2.0/armv6-m/libgcc.a(_fixunsdfsi.o)
                                        0xc5d (size before relaxing)
 .debug_str     0x000000000000ca2b       0xc3 /opt/zephyr-sdk/sysroots/armv5-zephyr-eabi/usr/lib/arm-zephyr-eabi/6.2.0/armv6-m/libgcc.a(_udivmoddi4.o)
                                        0xc64 (size before relaxing)
 .debug_str     0x000000000000caee      0x1bd /opt/zephyr-sdk/sysroots/armv5-zephyr-eabi/usr/lib/arm-zephyr-eabi/6.2.0/armv6-m/libgcc.a(adddf3.o)
                                        0x369 (size before relaxing)
 .debug_str     0x000000000000ccab      0x1f4 /opt/zephyr-sdk/sysroots/armv5-zephyr-eabi/usr/lib/arm-zephyr-eabi/6.2.0/armv6-m/libgcc.a(divdf3.o)
                                        0x42b (size before relaxing)
 .debug_str     0x000000000000ce9f       0x74 /opt/zephyr-sdk/sysroots/armv5-zephyr-eabi/usr/lib/arm-zephyr-eabi/6.2.0/armv6-m/libgcc.a(subdf3.o)
                                        0x369 (size before relaxing)
 .debug_str     0x000000000000cf13       0x88 /opt/zephyr-sdk/sysroots/armv5-zephyr-eabi/usr/lib/arm-zephyr-eabi/6.2.0/armv6-m/libgcc.a(fixdfsi.o)
                                        0x27f (size before relaxing)
 .debug_str     0x000000000000cf9b       0xa3 /opt/zephyr-sdk/sysroots/armv5-zephyr-eabi/usr/lib/arm-zephyr-eabi/6.2.0/armv6-m/libgcc.a(floatsidf.o)
                                        0x317 (size before relaxing)
 .debug_str     0x000000000000d03e       0x8d /opt/zephyr-sdk/sysroots/armv5-zephyr-eabi/usr/lib/arm-zephyr-eabi/6.2.0/armv6-m/libgcc.a(eqdf2.o)
                                        0x27f (size before relaxing)
 .debug_str     0x000000000000d0cb       0x92 /opt/zephyr-sdk/sysroots/armv5-zephyr-eabi/usr/lib/arm-zephyr-eabi/6.2.0/armv6-m/libgcc.a(gedf2.o)
                                        0x2a3 (size before relaxing)
 .debug_str     0x000000000000d15d       0x6e /opt/zephyr-sdk/sysroots/armv5-zephyr-eabi/usr/lib/arm-zephyr-eabi/6.2.0/armv6-m/libgcc.a(ledf2.o)
                                        0x2a3 (size before relaxing)

.comment        0x0000000000000000       0x11
 .comment       0x0000000000000000       0x11 CMakeFiles/kernel_elf.dir/isr_tables.c.obj
                                         0x12 (size before relaxing)
 .comment       0x0000000000000011       0x12 ../libapp.a(string.c.obj)
 .comment       0x0000000000000011       0x12 ../libapp.a(prf.c.obj)
 .comment       0x0000000000000011       0x12 ../libapp.a(stdout_console.c.obj)
 .comment       0x0000000000000011       0x12 ../libapp.a(fprintf.c.obj)
 .comment       0x0000000000000011       0x12 ../libapp.a(main.c.obj)
 .comment       0x0000000000000011       0x12 libzephyr.a(isr_tables.c.obj)
 .comment       0x0000000000000011       0x12 libzephyr.a(soc.c.obj)
 .comment       0x0000000000000011       0x12 libzephyr.a(irq_init.c.obj)
 .comment       0x0000000000000011       0x12 libzephyr.a(fault.c.obj)
 .comment       0x0000000000000011       0x12 libzephyr.a(irq_manage.c.obj)
 .comment       0x0000000000000011       0x12 libzephyr.a(thread.c.obj)
 .comment       0x0000000000000011       0x12 libzephyr.a(fatal.c.obj)
 .comment       0x0000000000000011       0x12 libzephyr.a(sys_fatal_error_handler.c.obj)
 .comment       0x0000000000000011       0x12 libzephyr.a(thread_abort.c.obj)
 .comment       0x0000000000000011       0x12 libzephyr.a(prep_c.c.obj)
 .comment       0x0000000000000011       0x12 libzephyr.a(nmi.c.obj)
 .comment       0x0000000000000011       0x12 libzephyr.a(printk.c.obj)
 .comment       0x0000000000000011       0x12 libzephyr.a(configs.c.obj)
 .comment       0x0000000000000011       0x12 libzephyr.a(uart_console.c.obj)
 .comment       0x0000000000000011       0x12 libzephyr.a(mb_display.c.obj)
 .comment       0x0000000000000011       0x12 libzephyr.a(mb_font.c.obj)
 .comment       0x0000000000000011       0x12 libzephyr.a(nrf5_power_clock.c.obj)
 .comment       0x0000000000000011       0x12 libzephyr.a(gpio_nrf5.c.obj)
 .comment       0x0000000000000011       0x12 libzephyr.a(i2c_bitbang.c.obj)
 .comment       0x0000000000000011       0x12 libzephyr.a(i2c_gpio.c.obj)
 .comment       0x0000000000000011       0x12 libzephyr.a(i2c_nrf5.c.obj)
 .comment       0x0000000000000011       0x12 libzephyr.a(pwm_nrf5_sw.c.obj)
 .comment       0x0000000000000011       0x12 libzephyr.a(temp_nrf5.c.obj)
 .comment       0x0000000000000011       0x12 libzephyr.a(uart_nrf5.c.obj)
 .comment       0x0000000000000011       0x12 libzephyr.a(sys_clock_init.c.obj)
 .comment       0x0000000000000011       0x12 libzephyr.a(nrf_rtc_timer.c.obj)
 .comment       0x0000000000000011       0x12 subsys/bluetooth/host/libsubsys__bluetooth__host.a(hci_core.c.obj)
 .comment       0x0000000000000011       0x12 subsys/bluetooth/controller/libsubsys__bluetooth__controller.a(mem.c.obj)
 .comment       0x0000000000000011       0x12 subsys/bluetooth/controller/libsubsys__bluetooth__controller.a(memq.c.obj)
 .comment       0x0000000000000011       0x12 subsys/bluetooth/controller/libsubsys__bluetooth__controller.a(mayfly.c.obj)
 .comment       0x0000000000000011       0x12 subsys/bluetooth/controller/libsubsys__bluetooth__controller.a(util.c.obj)
 .comment       0x0000000000000011       0x12 subsys/bluetooth/controller/libsubsys__bluetooth__controller.a(ticker.c.obj)
 .comment       0x0000000000000011       0x12 subsys/bluetooth/controller/libsubsys__bluetooth__controller.a(ll_addr.c.obj)
 .comment       0x0000000000000011       0x12 subsys/bluetooth/controller/libsubsys__bluetooth__controller.a(ll_tx_pwr.c.obj)
 .comment       0x0000000000000011       0x12 subsys/bluetooth/controller/libsubsys__bluetooth__controller.a(crypto.c.obj)
 .comment       0x0000000000000011       0x12 subsys/bluetooth/controller/libsubsys__bluetooth__controller.a(hci_driver.c.obj)
 .comment       0x0000000000000011       0x12 subsys/bluetooth/controller/libsubsys__bluetooth__controller.a(hci.c.obj)
 .comment       0x0000000000000011       0x12 subsys/bluetooth/controller/libsubsys__bluetooth__controller.a(ctrl.c.obj)
 .comment       0x0000000000000011       0x12 subsys/bluetooth/controller/libsubsys__bluetooth__controller.a(ll.c.obj)
 .comment       0x0000000000000011       0x12 subsys/bluetooth/controller/libsubsys__bluetooth__controller.a(ll_adv.c.obj)
 .comment       0x0000000000000011       0x12 subsys/bluetooth/controller/libsubsys__bluetooth__controller.a(ll_filter.c.obj)
 .comment       0x0000000000000011       0x12 subsys/bluetooth/controller/libsubsys__bluetooth__controller.a(cntr.c.obj)
 .comment       0x0000000000000011       0x12 subsys/bluetooth/controller/libsubsys__bluetooth__controller.a(rand.c.obj)
 .comment       0x0000000000000011       0x12 subsys/bluetooth/controller/libsubsys__bluetooth__controller.a(ecb.c.obj)
 .comment       0x0000000000000011       0x12 subsys/bluetooth/controller/libsubsys__bluetooth__controller.a(radio.c.obj)
 .comment       0x0000000000000011       0x12 subsys/bluetooth/controller/libsubsys__bluetooth__controller.a(mayfly.c.obj)
 .comment       0x0000000000000011       0x12 subsys/bluetooth/controller/libsubsys__bluetooth__controller.a(ticker.c.obj)
 .comment       0x0000000000000011       0x12 subsys/net/libsubsys__net.a(buf.c.obj)
 .comment       0x0000000000000011       0x12 kernel/libkernel.a(device.c.obj)
 .comment       0x0000000000000011       0x12 kernel/libkernel.a(errno.c.obj)
 .comment       0x0000000000000011       0x12 kernel/libkernel.a(idle.c.obj)
 .comment       0x0000000000000011       0x12 kernel/libkernel.a(init.c.obj)
 .comment       0x0000000000000011       0x12 kernel/libkernel.a(mempool.c.obj)
 .comment       0x0000000000000011       0x12 kernel/libkernel.a(mutex.c.obj)
 .comment       0x0000000000000011       0x12 kernel/libkernel.a(queue.c.obj)
 .comment       0x0000000000000011       0x12 kernel/libkernel.a(sched.c.obj)
 .comment       0x0000000000000011       0x12 kernel/libkernel.a(sem.c.obj)
 .comment       0x0000000000000011       0x12 kernel/libkernel.a(sys_clock.c.obj)
 .comment       0x0000000000000011       0x12 kernel/libkernel.a(system_work_q.c.obj)
 .comment       0x0000000000000011       0x12 kernel/libkernel.a(thread.c.obj)
 .comment       0x0000000000000011       0x12 kernel/libkernel.a(work_q.c.obj)
 .comment       0x0000000000000011       0x12 kernel/libkernel.a(timer.c.obj)
 .comment       0x0000000000000011       0x12 kernel/libkernel.a(atomic_c.c.obj)
 .comment       0x0000000000000011       0x12 kernel/libkernel.a(poll.c.obj)
 .comment       0x0000000000000011       0x12 CMakeFiles/offsets.dir/arch/arm/core/offsets/offsets.c.obj
 .comment       0x0000000000000011       0x12 /opt/zephyr-sdk/sysroots/armv5-zephyr-eabi/usr/lib/arm-zephyr-eabi/6.2.0/armv6-m/libgcc.a(_muldi3.o)
 .comment       0x0000000000000011       0x12 /opt/zephyr-sdk/sysroots/armv5-zephyr-eabi/usr/lib/arm-zephyr-eabi/6.2.0/armv6-m/libgcc.a(_ffssi2.o)
 .comment       0x0000000000000011       0x12 /opt/zephyr-sdk/sysroots/armv5-zephyr-eabi/usr/lib/arm-zephyr-eabi/6.2.0/armv6-m/libgcc.a(_popcountsi2.o)
 .comment       0x0000000000000011       0x12 /opt/zephyr-sdk/sysroots/armv5-zephyr-eabi/usr/lib/arm-zephyr-eabi/6.2.0/armv6-m/libgcc.a(_fixunsdfsi.o)
 .comment       0x0000000000000011       0x12 /opt/zephyr-sdk/sysroots/armv5-zephyr-eabi/usr/lib/arm-zephyr-eabi/6.2.0/armv6-m/libgcc.a(_udivmoddi4.o)
 .comment       0x0000000000000011       0x12 /opt/zephyr-sdk/sysroots/armv5-zephyr-eabi/usr/lib/arm-zephyr-eabi/6.2.0/armv6-m/libgcc.a(adddf3.o)
 .comment       0x0000000000000011       0x12 /opt/zephyr-sdk/sysroots/armv5-zephyr-eabi/usr/lib/arm-zephyr-eabi/6.2.0/armv6-m/libgcc.a(divdf3.o)
 .comment       0x0000000000000011       0x12 /opt/zephyr-sdk/sysroots/armv5-zephyr-eabi/usr/lib/arm-zephyr-eabi/6.2.0/armv6-m/libgcc.a(subdf3.o)
 .comment       0x0000000000000011       0x12 /opt/zephyr-sdk/sysroots/armv5-zephyr-eabi/usr/lib/arm-zephyr-eabi/6.2.0/armv6-m/libgcc.a(fixdfsi.o)
 .comment       0x0000000000000011       0x12 /opt/zephyr-sdk/sysroots/armv5-zephyr-eabi/usr/lib/arm-zephyr-eabi/6.2.0/armv6-m/libgcc.a(floatsidf.o)
 .comment       0x0000000000000011       0x12 /opt/zephyr-sdk/sysroots/armv5-zephyr-eabi/usr/lib/arm-zephyr-eabi/6.2.0/armv6-m/libgcc.a(eqdf2.o)
 .comment       0x0000000000000011       0x12 /opt/zephyr-sdk/sysroots/armv5-zephyr-eabi/usr/lib/arm-zephyr-eabi/6.2.0/armv6-m/libgcc.a(gedf2.o)
 .comment       0x0000000000000011       0x12 /opt/zephyr-sdk/sysroots/armv5-zephyr-eabi/usr/lib/arm-zephyr-eabi/6.2.0/armv6-m/libgcc.a(ledf2.o)

.ARM.attributes
                0x0000000000000000       0x2f
 .ARM.attributes
                0x0000000000000000       0x31 CMakeFiles/kernel_elf.dir/isr_tables.c.obj
 .ARM.attributes
                0x0000000000000031       0x31 ../libapp.a(string.c.obj)
 .ARM.attributes
                0x0000000000000062       0x31 ../libapp.a(prf.c.obj)
 .ARM.attributes
                0x0000000000000093       0x31 ../libapp.a(stdout_console.c.obj)
 .ARM.attributes
                0x00000000000000c4       0x31 ../libapp.a(fprintf.c.obj)
 .ARM.attributes
                0x00000000000000f5       0x31 ../libapp.a(main.c.obj)
 .ARM.attributes
                0x0000000000000126       0x31 libzephyr.a(isr_tables.c.obj)
 .ARM.attributes
                0x0000000000000157       0x31 libzephyr.a(soc.c.obj)
 .ARM.attributes
                0x0000000000000188       0x21 libzephyr.a(exc_exit.S.obj)
 .ARM.attributes
                0x00000000000001a9       0x31 libzephyr.a(irq_init.c.obj)
 .ARM.attributes
                0x00000000000001da       0x21 libzephyr.a(swap.S.obj)
 .ARM.attributes
                0x00000000000001fb       0x31 libzephyr.a(fault.c.obj)
 .ARM.attributes
                0x000000000000022c       0x31 libzephyr.a(irq_manage.c.obj)
 .ARM.attributes
                0x000000000000025d       0x31 libzephyr.a(thread.c.obj)
 .ARM.attributes
                0x000000000000028e       0x21 libzephyr.a(cpu_idle.S.obj)
 .ARM.attributes
                0x00000000000002af       0x21 libzephyr.a(fault_s.S.obj)
 .ARM.attributes
                0x00000000000002d0       0x31 libzephyr.a(fatal.c.obj)
 .ARM.attributes
                0x0000000000000301       0x31 libzephyr.a(sys_fatal_error_handler.c.obj)
 .ARM.attributes
                0x0000000000000332       0x31 libzephyr.a(thread_abort.c.obj)
 .ARM.attributes
                0x0000000000000363       0x21 libzephyr.a(isr_wrapper.S.obj)
 .ARM.attributes
                0x0000000000000384       0x21 libzephyr.a(vector_table.S.obj)
 .ARM.attributes
                0x00000000000003a5       0x21 libzephyr.a(reset.S.obj)
 .ARM.attributes
                0x00000000000003c6       0x21 libzephyr.a(nmi_on_reset.S.obj)
 .ARM.attributes
                0x00000000000003e7       0x31 libzephyr.a(prep_c.c.obj)
 .ARM.attributes
                0x0000000000000418       0x31 libzephyr.a(nmi.c.obj)
 .ARM.attributes
                0x0000000000000449       0x31 libzephyr.a(printk.c.obj)
 .ARM.attributes
                0x000000000000047a       0x31 libzephyr.a(configs.c.obj)
 .ARM.attributes
                0x00000000000004ab       0x31 libzephyr.a(uart_console.c.obj)
 .ARM.attributes
                0x00000000000004dc       0x31 libzephyr.a(mb_display.c.obj)
 .ARM.attributes
                0x000000000000050d       0x31 libzephyr.a(mb_font.c.obj)
 .ARM.attributes
                0x000000000000053e       0x31 libzephyr.a(nrf5_power_clock.c.obj)
 .ARM.attributes
                0x000000000000056f       0x31 libzephyr.a(gpio_nrf5.c.obj)
 .ARM.attributes
                0x00000000000005a0       0x31 libzephyr.a(i2c_bitbang.c.obj)
 .ARM.attributes
                0x00000000000005d1       0x31 libzephyr.a(i2c_gpio.c.obj)
 .ARM.attributes
                0x0000000000000602       0x31 libzephyr.a(i2c_nrf5.c.obj)
 .ARM.attributes
                0x0000000000000633       0x31 libzephyr.a(pwm_nrf5_sw.c.obj)
 .ARM.attributes
                0x0000000000000664       0x31 libzephyr.a(temp_nrf5.c.obj)
 .ARM.attributes
                0x0000000000000695       0x31 libzephyr.a(uart_nrf5.c.obj)
 .ARM.attributes
                0x00000000000006c6       0x31 libzephyr.a(sys_clock_init.c.obj)
 .ARM.attributes
                0x00000000000006f7       0x31 libzephyr.a(nrf_rtc_timer.c.obj)
 .ARM.attributes
                0x0000000000000728       0x31 subsys/bluetooth/host/libsubsys__bluetooth__host.a(hci_core.c.obj)
 .ARM.attributes
                0x0000000000000759       0x31 subsys/bluetooth/controller/libsubsys__bluetooth__controller.a(mem.c.obj)
 .ARM.attributes
                0x000000000000078a       0x31 subsys/bluetooth/controller/libsubsys__bluetooth__controller.a(memq.c.obj)
 .ARM.attributes
                0x00000000000007bb       0x31 subsys/bluetooth/controller/libsubsys__bluetooth__controller.a(mayfly.c.obj)
 .ARM.attributes
                0x00000000000007ec       0x31 subsys/bluetooth/controller/libsubsys__bluetooth__controller.a(util.c.obj)
 .ARM.attributes
                0x000000000000081d       0x31 subsys/bluetooth/controller/libsubsys__bluetooth__controller.a(ticker.c.obj)
 .ARM.attributes
                0x000000000000084e       0x31 subsys/bluetooth/controller/libsubsys__bluetooth__controller.a(ll_addr.c.obj)
 .ARM.attributes
                0x000000000000087f       0x31 subsys/bluetooth/controller/libsubsys__bluetooth__controller.a(ll_tx_pwr.c.obj)
 .ARM.attributes
                0x00000000000008b0       0x31 subsys/bluetooth/controller/libsubsys__bluetooth__controller.a(crypto.c.obj)
 .ARM.attributes
                0x00000000000008e1       0x31 subsys/bluetooth/controller/libsubsys__bluetooth__controller.a(hci_driver.c.obj)
 .ARM.attributes
                0x0000000000000912       0x31 subsys/bluetooth/controller/libsubsys__bluetooth__controller.a(hci.c.obj)
 .ARM.attributes
                0x0000000000000943       0x31 subsys/bluetooth/controller/libsubsys__bluetooth__controller.a(ctrl.c.obj)
 .ARM.attributes
                0x0000000000000974       0x31 subsys/bluetooth/controller/libsubsys__bluetooth__controller.a(ll.c.obj)
 .ARM.attributes
                0x00000000000009a5       0x31 subsys/bluetooth/controller/libsubsys__bluetooth__controller.a(ll_adv.c.obj)
 .ARM.attributes
                0x00000000000009d6       0x31 subsys/bluetooth/controller/libsubsys__bluetooth__controller.a(ll_filter.c.obj)
 .ARM.attributes
                0x0000000000000a07       0x31 subsys/bluetooth/controller/libsubsys__bluetooth__controller.a(cntr.c.obj)
 .ARM.attributes
                0x0000000000000a38       0x31 subsys/bluetooth/controller/libsubsys__bluetooth__controller.a(rand.c.obj)
 .ARM.attributes
                0x0000000000000a69       0x31 subsys/bluetooth/controller/libsubsys__bluetooth__controller.a(ecb.c.obj)
 .ARM.attributes
                0x0000000000000a9a       0x31 subsys/bluetooth/controller/libsubsys__bluetooth__controller.a(radio.c.obj)
 .ARM.attributes
                0x0000000000000acb       0x31 subsys/bluetooth/controller/libsubsys__bluetooth__controller.a(mayfly.c.obj)
 .ARM.attributes
                0x0000000000000afc       0x31 subsys/bluetooth/controller/libsubsys__bluetooth__controller.a(ticker.c.obj)
 .ARM.attributes
                0x0000000000000b2d       0x31 subsys/net/libsubsys__net.a(buf.c.obj)
 .ARM.attributes
                0x0000000000000b5e       0x31 kernel/libkernel.a(device.c.obj)
 .ARM.attributes
                0x0000000000000b8f       0x31 kernel/libkernel.a(errno.c.obj)
 .ARM.attributes
                0x0000000000000bc0       0x31 kernel/libkernel.a(idle.c.obj)
 .ARM.attributes
                0x0000000000000bf1       0x31 kernel/libkernel.a(init.c.obj)
 .ARM.attributes
                0x0000000000000c22       0x31 kernel/libkernel.a(mempool.c.obj)
 .ARM.attributes
                0x0000000000000c53       0x31 kernel/libkernel.a(mutex.c.obj)
 .ARM.attributes
                0x0000000000000c84       0x31 kernel/libkernel.a(queue.c.obj)
 .ARM.attributes
                0x0000000000000cb5       0x31 kernel/libkernel.a(sched.c.obj)
 .ARM.attributes
                0x0000000000000ce6       0x31 kernel/libkernel.a(sem.c.obj)
 .ARM.attributes
                0x0000000000000d17       0x31 kernel/libkernel.a(sys_clock.c.obj)
 .ARM.attributes
                0x0000000000000d48       0x31 kernel/libkernel.a(system_work_q.c.obj)
 .ARM.attributes
                0x0000000000000d79       0x31 kernel/libkernel.a(thread.c.obj)
 .ARM.attributes
                0x0000000000000daa       0x31 kernel/libkernel.a(work_q.c.obj)
 .ARM.attributes
                0x0000000000000ddb       0x31 kernel/libkernel.a(timer.c.obj)
 .ARM.attributes
                0x0000000000000e0c       0x31 kernel/libkernel.a(atomic_c.c.obj)
 .ARM.attributes
                0x0000000000000e3d       0x31 kernel/libkernel.a(poll.c.obj)
 .ARM.attributes
                0x0000000000000e6e       0x31 CMakeFiles/offsets.dir/arch/arm/core/offsets/offsets.c.obj
 .ARM.attributes
                0x0000000000000e9f       0x1e /opt/zephyr-sdk/sysroots/armv5-zephyr-eabi/usr/lib/arm-zephyr-eabi/6.2.0/armv6-m/libgcc.a(_thumb1_case_sqi.o)
 .ARM.attributes
                0x0000000000000ebd       0x1e /opt/zephyr-sdk/sysroots/armv5-zephyr-eabi/usr/lib/arm-zephyr-eabi/6.2.0/armv6-m/libgcc.a(_thumb1_case_uqi.o)
 .ARM.attributes
                0x0000000000000edb       0x1e /opt/zephyr-sdk/sysroots/armv5-zephyr-eabi/usr/lib/arm-zephyr-eabi/6.2.0/armv6-m/libgcc.a(_thumb1_case_shi.o)
 .ARM.attributes
                0x0000000000000ef9       0x1e /opt/zephyr-sdk/sysroots/armv5-zephyr-eabi/usr/lib/arm-zephyr-eabi/6.2.0/armv6-m/libgcc.a(_thumb1_case_uhi.o)
 .ARM.attributes
                0x0000000000000f17       0x1e /opt/zephyr-sdk/sysroots/armv5-zephyr-eabi/usr/lib/arm-zephyr-eabi/6.2.0/armv6-m/libgcc.a(_udivsi3.o)
 .ARM.attributes
                0x0000000000000f35       0x1e /opt/zephyr-sdk/sysroots/armv5-zephyr-eabi/usr/lib/arm-zephyr-eabi/6.2.0/armv6-m/libgcc.a(_divsi3.o)
 .ARM.attributes
                0x0000000000000f53       0x1e /opt/zephyr-sdk/sysroots/armv5-zephyr-eabi/usr/lib/arm-zephyr-eabi/6.2.0/armv6-m/libgcc.a(_dvmd_tls.o)
 .ARM.attributes
                0x0000000000000f71       0x1e /opt/zephyr-sdk/sysroots/armv5-zephyr-eabi/usr/lib/arm-zephyr-eabi/6.2.0/armv6-m/libgcc.a(_lshrdi3.o)
 .ARM.attributes
                0x0000000000000f8f       0x1e /opt/zephyr-sdk/sysroots/armv5-zephyr-eabi/usr/lib/arm-zephyr-eabi/6.2.0/armv6-m/libgcc.a(_ashldi3.o)
 .ARM.attributes
                0x0000000000000fad       0x1e /opt/zephyr-sdk/sysroots/armv5-zephyr-eabi/usr/lib/arm-zephyr-eabi/6.2.0/armv6-m/libgcc.a(_aeabi_uldivmod.o)
 .ARM.attributes
                0x0000000000000fcb       0x2c /opt/zephyr-sdk/sysroots/armv5-zephyr-eabi/usr/lib/arm-zephyr-eabi/6.2.0/armv6-m/libgcc.a(_muldi3.o)
 .ARM.attributes
                0x0000000000000ff7       0x2c /opt/zephyr-sdk/sysroots/armv5-zephyr-eabi/usr/lib/arm-zephyr-eabi/6.2.0/armv6-m/libgcc.a(_ffssi2.o)
 .ARM.attributes
                0x0000000000001023       0x2c /opt/zephyr-sdk/sysroots/armv5-zephyr-eabi/usr/lib/arm-zephyr-eabi/6.2.0/armv6-m/libgcc.a(_popcountsi2.o)
 .ARM.attributes
                0x000000000000104f       0x2c /opt/zephyr-sdk/sysroots/armv5-zephyr-eabi/usr/lib/arm-zephyr-eabi/6.2.0/armv6-m/libgcc.a(_fixunsdfsi.o)
 .ARM.attributes
                0x000000000000107b       0x2c /opt/zephyr-sdk/sysroots/armv5-zephyr-eabi/usr/lib/arm-zephyr-eabi/6.2.0/armv6-m/libgcc.a(_udivmoddi4.o)
 .ARM.attributes
                0x00000000000010a7       0x2c /opt/zephyr-sdk/sysroots/armv5-zephyr-eabi/usr/lib/arm-zephyr-eabi/6.2.0/armv6-m/libgcc.a(adddf3.o)
 .ARM.attributes
                0x00000000000010d3       0x2c /opt/zephyr-sdk/sysroots/armv5-zephyr-eabi/usr/lib/arm-zephyr-eabi/6.2.0/armv6-m/libgcc.a(divdf3.o)
 .ARM.attributes
                0x00000000000010ff       0x2c /opt/zephyr-sdk/sysroots/armv5-zephyr-eabi/usr/lib/arm-zephyr-eabi/6.2.0/armv6-m/libgcc.a(subdf3.o)
 .ARM.attributes
                0x000000000000112b       0x2c /opt/zephyr-sdk/sysroots/armv5-zephyr-eabi/usr/lib/arm-zephyr-eabi/6.2.0/armv6-m/libgcc.a(fixdfsi.o)
 .ARM.attributes
                0x0000000000001157       0x2c /opt/zephyr-sdk/sysroots/armv5-zephyr-eabi/usr/lib/arm-zephyr-eabi/6.2.0/armv6-m/libgcc.a(floatsidf.o)
 .ARM.attributes
                0x0000000000001183       0x1e /opt/zephyr-sdk/sysroots/armv5-zephyr-eabi/usr/lib/arm-zephyr-eabi/6.2.0/armv6-m/libgcc.a(_arm_cmpdf2.o)
 .ARM.attributes
                0x00000000000011a1       0x1e /opt/zephyr-sdk/sysroots/armv5-zephyr-eabi/usr/lib/arm-zephyr-eabi/6.2.0/armv6-m/libgcc.a(_clzsi2.o)
 .ARM.attributes
                0x00000000000011bf       0x1e /opt/zephyr-sdk/sysroots/armv5-zephyr-eabi/usr/lib/arm-zephyr-eabi/6.2.0/armv6-m/libgcc.a(_clzdi2.o)
 .ARM.attributes
                0x00000000000011dd       0x1e /opt/zephyr-sdk/sysroots/armv5-zephyr-eabi/usr/lib/arm-zephyr-eabi/6.2.0/armv6-m/libgcc.a(_ctzsi2.o)
 .ARM.attributes
                0x00000000000011fb       0x2c /opt/zephyr-sdk/sysroots/armv5-zephyr-eabi/usr/lib/arm-zephyr-eabi/6.2.0/armv6-m/libgcc.a(eqdf2.o)
 .ARM.attributes
                0x0000000000001227       0x2c /opt/zephyr-sdk/sysroots/armv5-zephyr-eabi/usr/lib/arm-zephyr-eabi/6.2.0/armv6-m/libgcc.a(gedf2.o)
 .ARM.attributes
                0x0000000000001253       0x2c /opt/zephyr-sdk/sysroots/armv5-zephyr-eabi/usr/lib/arm-zephyr-eabi/6.2.0/armv6-m/libgcc.a(ledf2.o)

.debug_loc      0x0000000000000000    0x234cd
 .debug_loc     0x0000000000000000      0x9f0 ../libapp.a(string.c.obj)
 .debug_loc     0x00000000000009f0     0x1722 ../libapp.a(prf.c.obj)
 .debug_loc     0x0000000000002112      0x1e7 ../libapp.a(stdout_console.c.obj)
 .debug_loc     0x00000000000022f9       0xd6 ../libapp.a(fprintf.c.obj)
 .debug_loc     0x00000000000023cf      0x361 ../libapp.a(main.c.obj)
 .debug_loc     0x0000000000002730       0x21 libzephyr.a(soc.c.obj)
 .debug_loc     0x0000000000002751       0x5e libzephyr.a(irq_init.c.obj)
 .debug_loc     0x00000000000027af      0x110 libzephyr.a(fault.c.obj)
 .debug_loc     0x00000000000028bf      0x1ed libzephyr.a(irq_manage.c.obj)
 .debug_loc     0x0000000000002aac      0x16f libzephyr.a(thread.c.obj)
 .debug_loc     0x0000000000002c1b      0x10d libzephyr.a(fatal.c.obj)
 .debug_loc     0x0000000000002d28       0x42 libzephyr.a(sys_fatal_error_handler.c.obj)
 .debug_loc     0x0000000000002d6a       0x3f libzephyr.a(thread_abort.c.obj)
 .debug_loc     0x0000000000002da9      0xc96 libzephyr.a(printk.c.obj)
 .debug_loc     0x0000000000003a3f       0xbf libzephyr.a(uart_console.c.obj)
 .debug_loc     0x0000000000003afe      0xa08 libzephyr.a(mb_display.c.obj)
 .debug_loc     0x0000000000004506      0x442 libzephyr.a(nrf5_power_clock.c.obj)
 .debug_loc     0x0000000000004948      0xae2 libzephyr.a(gpio_nrf5.c.obj)
 .debug_loc     0x000000000000542a      0x515 libzephyr.a(i2c_bitbang.c.obj)
 .debug_loc     0x000000000000593f      0x5a4 libzephyr.a(i2c_gpio.c.obj)
 .debug_loc     0x0000000000005ee3      0x7f5 libzephyr.a(i2c_nrf5.c.obj)
 .debug_loc     0x00000000000066d8      0x355 libzephyr.a(pwm_nrf5_sw.c.obj)
 .debug_loc     0x0000000000006a2d      0x2e3 libzephyr.a(temp_nrf5.c.obj)
 .debug_loc     0x0000000000006d10      0x291 libzephyr.a(uart_nrf5.c.obj)
 .debug_loc     0x0000000000006fa1      0x22a libzephyr.a(nrf_rtc_timer.c.obj)
 .debug_loc     0x00000000000071cb     0x21f9 subsys/bluetooth/host/libsubsys__bluetooth__host.a(hci_core.c.obj)
 .debug_loc     0x00000000000093c4      0x418 subsys/bluetooth/controller/libsubsys__bluetooth__controller.a(mem.c.obj)
 .debug_loc     0x00000000000097dc      0x138 subsys/bluetooth/controller/libsubsys__bluetooth__controller.a(memq.c.obj)
 .debug_loc     0x0000000000009914      0x3d2 subsys/bluetooth/controller/libsubsys__bluetooth__controller.a(mayfly.c.obj)
 .debug_loc     0x0000000000009ce6       0x69 subsys/bluetooth/controller/libsubsys__bluetooth__controller.a(util.c.obj)
 .debug_loc     0x0000000000009d4f     0x23a7 subsys/bluetooth/controller/libsubsys__bluetooth__controller.a(ticker.c.obj)
 .debug_loc     0x000000000000c0f6       0xbb subsys/bluetooth/controller/libsubsys__bluetooth__controller.a(ll_addr.c.obj)
 .debug_loc     0x000000000000c1b1       0x21 subsys/bluetooth/controller/libsubsys__bluetooth__controller.a(ll_tx_pwr.c.obj)
 .debug_loc     0x000000000000c1d2      0x181 subsys/bluetooth/controller/libsubsys__bluetooth__controller.a(crypto.c.obj)
 .debug_loc     0x000000000000c353      0x462 subsys/bluetooth/controller/libsubsys__bluetooth__controller.a(hci_driver.c.obj)
 .debug_loc     0x000000000000c7b5     0x201e subsys/bluetooth/controller/libsubsys__bluetooth__controller.a(hci.c.obj)
 .debug_loc     0x000000000000e7d3     0x66da subsys/bluetooth/controller/libsubsys__bluetooth__controller.a(ctrl.c.obj)
 .debug_loc     0x0000000000014ead      0x19a subsys/bluetooth/controller/libsubsys__bluetooth__controller.a(ll.c.obj)
 .debug_loc     0x0000000000015047      0x734 subsys/bluetooth/controller/libsubsys__bluetooth__controller.a(ll_adv.c.obj)
 .debug_loc     0x000000000001577b      0x113 subsys/bluetooth/controller/libsubsys__bluetooth__controller.a(ll_filter.c.obj)
 .debug_loc     0x000000000001588e       0x21 subsys/bluetooth/controller/libsubsys__bluetooth__controller.a(cntr.c.obj)
 .debug_loc     0x00000000000158af      0x6fd subsys/bluetooth/controller/libsubsys__bluetooth__controller.a(rand.c.obj)
 .debug_loc     0x0000000000015fac      0x2df subsys/bluetooth/controller/libsubsys__bluetooth__controller.a(ecb.c.obj)
 .debug_loc     0x000000000001628b      0x547 subsys/bluetooth/controller/libsubsys__bluetooth__controller.a(radio.c.obj)
 .debug_loc     0x00000000000167d2      0x16a subsys/bluetooth/controller/libsubsys__bluetooth__controller.a(mayfly.c.obj)
 .debug_loc     0x000000000001693c      0x1bc subsys/bluetooth/controller/libsubsys__bluetooth__controller.a(ticker.c.obj)
 .debug_loc     0x0000000000016af8     0x11c1 subsys/net/libsubsys__net.a(buf.c.obj)
 .debug_loc     0x0000000000017cb9       0xc0 kernel/libkernel.a(device.c.obj)
 .debug_loc     0x0000000000017d79       0xaa kernel/libkernel.a(idle.c.obj)
 .debug_loc     0x0000000000017e23      0x137 kernel/libkernel.a(init.c.obj)
 .debug_loc     0x0000000000017f5a      0xdac kernel/libkernel.a(mempool.c.obj)
 .debug_loc     0x0000000000018d06      0x41c kernel/libkernel.a(mutex.c.obj)
 .debug_loc     0x0000000000019122      0x5c7 kernel/libkernel.a(queue.c.obj)
 .debug_loc     0x00000000000196e9      0xf63 kernel/libkernel.a(sched.c.obj)
 .debug_loc     0x000000000001a64c      0x45b kernel/libkernel.a(sem.c.obj)
 .debug_loc     0x000000000001aaa7      0x4e0 kernel/libkernel.a(sys_clock.c.obj)
 .debug_loc     0x000000000001af87       0x21 kernel/libkernel.a(system_work_q.c.obj)
 .debug_loc     0x000000000001afa8      0xb45 kernel/libkernel.a(thread.c.obj)
 .debug_loc     0x000000000001baed      0x90b kernel/libkernel.a(work_q.c.obj)
 .debug_loc     0x000000000001c3f8      0x763 kernel/libkernel.a(timer.c.obj)
 .debug_loc     0x000000000001cb5b      0x28a kernel/libkernel.a(atomic_c.c.obj)
 .debug_loc     0x000000000001cde5      0x87c kernel/libkernel.a(poll.c.obj)
 .debug_loc     0x000000000001d661      0x19b /opt/zephyr-sdk/sysroots/armv5-zephyr-eabi/usr/lib/arm-zephyr-eabi/6.2.0/armv6-m/libgcc.a(_muldi3.o)
 .debug_loc     0x000000000001d7fc       0x34 /opt/zephyr-sdk/sysroots/armv5-zephyr-eabi/usr/lib/arm-zephyr-eabi/6.2.0/armv6-m/libgcc.a(_ffssi2.o)
 .debug_loc     0x000000000001d830       0xce /opt/zephyr-sdk/sysroots/armv5-zephyr-eabi/usr/lib/arm-zephyr-eabi/6.2.0/armv6-m/libgcc.a(_popcountsi2.o)
 .debug_loc     0x000000000001d8fe       0x28 /opt/zephyr-sdk/sysroots/armv5-zephyr-eabi/usr/lib/arm-zephyr-eabi/6.2.0/armv6-m/libgcc.a(_fixunsdfsi.o)
 .debug_loc     0x000000000001d926      0x38d /opt/zephyr-sdk/sysroots/armv5-zephyr-eabi/usr/lib/arm-zephyr-eabi/6.2.0/armv6-m/libgcc.a(_udivmoddi4.o)
 .debug_loc     0x000000000001dcb3     0x15c9 /opt/zephyr-sdk/sysroots/armv5-zephyr-eabi/usr/lib/arm-zephyr-eabi/6.2.0/armv6-m/libgcc.a(adddf3.o)
 .debug_loc     0x000000000001f27c     0x20aa /opt/zephyr-sdk/sysroots/armv5-zephyr-eabi/usr/lib/arm-zephyr-eabi/6.2.0/armv6-m/libgcc.a(divdf3.o)
 .debug_loc     0x0000000000021326     0x173d /opt/zephyr-sdk/sysroots/armv5-zephyr-eabi/usr/lib/arm-zephyr-eabi/6.2.0/armv6-m/libgcc.a(subdf3.o)
 .debug_loc     0x0000000000022a63       0xf4 /opt/zephyr-sdk/sysroots/armv5-zephyr-eabi/usr/lib/arm-zephyr-eabi/6.2.0/armv6-m/libgcc.a(fixdfsi.o)
 .debug_loc     0x0000000000022b57      0x212 /opt/zephyr-sdk/sysroots/armv5-zephyr-eabi/usr/lib/arm-zephyr-eabi/6.2.0/armv6-m/libgcc.a(floatsidf.o)
 .debug_loc     0x0000000000022d69      0x15b /opt/zephyr-sdk/sysroots/armv5-zephyr-eabi/usr/lib/arm-zephyr-eabi/6.2.0/armv6-m/libgcc.a(eqdf2.o)
 .debug_loc     0x0000000000022ec4      0x30d /opt/zephyr-sdk/sysroots/armv5-zephyr-eabi/usr/lib/arm-zephyr-eabi/6.2.0/armv6-m/libgcc.a(gedf2.o)
 .debug_loc     0x00000000000231d1      0x2fc /opt/zephyr-sdk/sysroots/armv5-zephyr-eabi/usr/lib/arm-zephyr-eabi/6.2.0/armv6-m/libgcc.a(ledf2.o)

.debug_ranges   0x0000000000000000     0x4e50
 .debug_ranges  0x0000000000000000       0x90 ../libapp.a(string.c.obj)
 .debug_ranges  0x0000000000000090      0x168 ../libapp.a(prf.c.obj)
 .debug_ranges  0x00000000000001f8       0x38 ../libapp.a(stdout_console.c.obj)
 .debug_ranges  0x0000000000000230       0x28 ../libapp.a(fprintf.c.obj)
 .debug_ranges  0x0000000000000258       0xb0 ../libapp.a(main.c.obj)
 .debug_ranges  0x0000000000000308       0x10 libzephyr.a(isr_tables.c.obj)
 .debug_ranges  0x0000000000000318       0x28 libzephyr.a(soc.c.obj)
 .debug_ranges  0x0000000000000340       0x30 libzephyr.a(irq_init.c.obj)
 .debug_ranges  0x0000000000000370       0x28 libzephyr.a(swap.S.obj)
 .debug_ranges  0x0000000000000398       0x60 libzephyr.a(fault.c.obj)
 .debug_ranges  0x00000000000003f8       0x50 libzephyr.a(irq_manage.c.obj)
 .debug_ranges  0x0000000000000448       0x40 libzephyr.a(thread.c.obj)
 .debug_ranges  0x0000000000000488       0x38 libzephyr.a(cpu_idle.S.obj)
 .debug_ranges  0x00000000000004c0       0x38 libzephyr.a(fatal.c.obj)
 .debug_ranges  0x00000000000004f8       0x10 libzephyr.a(sys_fatal_error_handler.c.obj)
 .debug_ranges  0x0000000000000508       0x10 libzephyr.a(thread_abort.c.obj)
 .debug_ranges  0x0000000000000518       0x18 libzephyr.a(prep_c.c.obj)
 .debug_ranges  0x0000000000000530       0x10 libzephyr.a(nmi.c.obj)
 .debug_ranges  0x0000000000000540      0x140 libzephyr.a(printk.c.obj)
 .debug_ranges  0x0000000000000680       0x10 libzephyr.a(configs.c.obj)
 .debug_ranges  0x0000000000000690       0x38 libzephyr.a(uart_console.c.obj)
 .debug_ranges  0x00000000000006c8      0x1c0 libzephyr.a(mb_display.c.obj)
 .debug_ranges  0x0000000000000888       0x60 libzephyr.a(nrf5_power_clock.c.obj)
 .debug_ranges  0x00000000000008e8       0xd0 libzephyr.a(gpio_nrf5.c.obj)
 .debug_ranges  0x00000000000009b8      0x100 libzephyr.a(i2c_bitbang.c.obj)
 .debug_ranges  0x0000000000000ab8       0x68 libzephyr.a(i2c_gpio.c.obj)
 .debug_ranges  0x0000000000000b20      0x1b8 libzephyr.a(i2c_nrf5.c.obj)
 .debug_ranges  0x0000000000000cd8       0x60 libzephyr.a(pwm_nrf5_sw.c.obj)
 .debug_ranges  0x0000000000000d38       0x78 libzephyr.a(temp_nrf5.c.obj)
 .debug_ranges  0x0000000000000db0       0x68 libzephyr.a(uart_nrf5.c.obj)
 .debug_ranges  0x0000000000000e18       0x70 libzephyr.a(nrf_rtc_timer.c.obj)
 .debug_ranges  0x0000000000000e88      0x548 subsys/bluetooth/host/libsubsys__bluetooth__host.a(hci_core.c.obj)
 .debug_ranges  0x00000000000013d0       0x80 subsys/bluetooth/controller/libsubsys__bluetooth__controller.a(mem.c.obj)
 .debug_ranges  0x0000000000001450       0x40 subsys/bluetooth/controller/libsubsys__bluetooth__controller.a(memq.c.obj)
 .debug_ranges  0x0000000000001490       0x60 subsys/bluetooth/controller/libsubsys__bluetooth__controller.a(mayfly.c.obj)
 .debug_ranges  0x00000000000014f0       0x10 subsys/bluetooth/controller/libsubsys__bluetooth__controller.a(util.c.obj)
 .debug_ranges  0x0000000000001500      0x338 subsys/bluetooth/controller/libsubsys__bluetooth__controller.a(ticker.c.obj)
 .debug_ranges  0x0000000000001838       0x18 subsys/bluetooth/controller/libsubsys__bluetooth__controller.a(ll_addr.c.obj)
 .debug_ranges  0x0000000000001850       0x18 subsys/bluetooth/controller/libsubsys__bluetooth__controller.a(ll_tx_pwr.c.obj)
 .debug_ranges  0x0000000000001868       0x40 subsys/bluetooth/controller/libsubsys__bluetooth__controller.a(crypto.c.obj)
 .debug_ranges  0x00000000000018a8       0x78 subsys/bluetooth/controller/libsubsys__bluetooth__controller.a(hci_driver.c.obj)
 .debug_ranges  0x0000000000001920      0x230 subsys/bluetooth/controller/libsubsys__bluetooth__controller.a(hci.c.obj)
 .debug_ranges  0x0000000000001b50      0xc60 subsys/bluetooth/controller/libsubsys__bluetooth__controller.a(ctrl.c.obj)
 .debug_ranges  0x00000000000027b0       0x60 subsys/bluetooth/controller/libsubsys__bluetooth__controller.a(ll.c.obj)
 .debug_ranges  0x0000000000002810       0x78 subsys/bluetooth/controller/libsubsys__bluetooth__controller.a(ll_adv.c.obj)
 .debug_ranges  0x0000000000002888       0x88 subsys/bluetooth/controller/libsubsys__bluetooth__controller.a(ll_filter.c.obj)
 .debug_ranges  0x0000000000002910       0x30 subsys/bluetooth/controller/libsubsys__bluetooth__controller.a(cntr.c.obj)
 .debug_ranges  0x0000000000002940       0x80 subsys/bluetooth/controller/libsubsys__bluetooth__controller.a(rand.c.obj)
 .debug_ranges  0x00000000000029c0       0x88 subsys/bluetooth/controller/libsubsys__bluetooth__controller.a(ecb.c.obj)
 .debug_ranges  0x0000000000002a48      0x250 subsys/bluetooth/controller/libsubsys__bluetooth__controller.a(radio.c.obj)
 .debug_ranges  0x0000000000002c98       0x40 subsys/bluetooth/controller/libsubsys__bluetooth__controller.a(mayfly.c.obj)
 .debug_ranges  0x0000000000002cd8       0x50 subsys/bluetooth/controller/libsubsys__bluetooth__controller.a(ticker.c.obj)
 .debug_ranges  0x0000000000002d28      0x3f0 subsys/net/libsubsys__net.a(buf.c.obj)
 .debug_ranges  0x0000000000003118       0x20 kernel/libkernel.a(device.c.obj)
 .debug_ranges  0x0000000000003138       0x10 kernel/libkernel.a(errno.c.obj)
 .debug_ranges  0x0000000000003148       0x88 kernel/libkernel.a(idle.c.obj)
 .debug_ranges  0x00000000000031d0       0xa8 kernel/libkernel.a(init.c.obj)
 .debug_ranges  0x0000000000003278      0x2a0 kernel/libkernel.a(mempool.c.obj)
 .debug_ranges  0x0000000000003518      0x1b8 kernel/libkernel.a(mutex.c.obj)
 .debug_ranges  0x00000000000036d0       0xb8 kernel/libkernel.a(queue.c.obj)
 .debug_ranges  0x0000000000003788      0x310 kernel/libkernel.a(sched.c.obj)
 .debug_ranges  0x0000000000003a98      0x110 kernel/libkernel.a(sem.c.obj)
 .debug_ranges  0x0000000000003ba8      0x200 kernel/libkernel.a(sys_clock.c.obj)
 .debug_ranges  0x0000000000003da8       0x10 kernel/libkernel.a(system_work_q.c.obj)
 .debug_ranges  0x0000000000003db8      0x280 kernel/libkernel.a(thread.c.obj)
 .debug_ranges  0x0000000000004038      0x1d8 kernel/libkernel.a(work_q.c.obj)
 .debug_ranges  0x0000000000004210      0x1f8 kernel/libkernel.a(timer.c.obj)
 .debug_ranges  0x0000000000004408       0x68 kernel/libkernel.a(atomic_c.c.obj)
 .debug_ranges  0x0000000000004470      0x238 kernel/libkernel.a(poll.c.obj)
 .debug_ranges  0x00000000000046a8       0x10 CMakeFiles/offsets.dir/arch/arm/core/offsets/offsets.c.obj
 .debug_ranges  0x00000000000046b8       0x28 /opt/zephyr-sdk/sysroots/armv5-zephyr-eabi/usr/lib/arm-zephyr-eabi/6.2.0/armv6-m/libgcc.a(_muldi3.o)
 .debug_ranges  0x00000000000046e0      0x270 /opt/zephyr-sdk/sysroots/armv5-zephyr-eabi/usr/lib/arm-zephyr-eabi/6.2.0/armv6-m/libgcc.a(adddf3.o)
 .debug_ranges  0x0000000000004950      0x160 /opt/zephyr-sdk/sysroots/armv5-zephyr-eabi/usr/lib/arm-zephyr-eabi/6.2.0/armv6-m/libgcc.a(divdf3.o)
 .debug_ranges  0x0000000000004ab0      0x278 /opt/zephyr-sdk/sysroots/armv5-zephyr-eabi/usr/lib/arm-zephyr-eabi/6.2.0/armv6-m/libgcc.a(subdf3.o)
 .debug_ranges  0x0000000000004d28       0x18 /opt/zephyr-sdk/sysroots/armv5-zephyr-eabi/usr/lib/arm-zephyr-eabi/6.2.0/armv6-m/libgcc.a(fixdfsi.o)
 .debug_ranges  0x0000000000004d40       0x48 /opt/zephyr-sdk/sysroots/armv5-zephyr-eabi/usr/lib/arm-zephyr-eabi/6.2.0/armv6-m/libgcc.a(floatsidf.o)
 .debug_ranges  0x0000000000004d88       0x38 /opt/zephyr-sdk/sysroots/armv5-zephyr-eabi/usr/lib/arm-zephyr-eabi/6.2.0/armv6-m/libgcc.a(eqdf2.o)
 .debug_ranges  0x0000000000004dc0       0x58 /opt/zephyr-sdk/sysroots/armv5-zephyr-eabi/usr/lib/arm-zephyr-eabi/6.2.0/armv6-m/libgcc.a(gedf2.o)
 .debug_ranges  0x0000000000004e18       0x38 /opt/zephyr-sdk/sysroots/armv5-zephyr-eabi/usr/lib/arm-zephyr-eabi/6.2.0/armv6-m/libgcc.a(ledf2.o)

.debug_frame    0x0000000000000000     0x42d8
 .debug_frame   0x0000000000000000      0x144 ../libapp.a(string.c.obj)
 .debug_frame   0x0000000000000144       0xb0 ../libapp.a(prf.c.obj)
 .debug_frame   0x00000000000001f4       0x9c ../libapp.a(stdout_console.c.obj)
 .debug_frame   0x0000000000000290       0x7c ../libapp.a(fprintf.c.obj)
 .debug_frame   0x000000000000030c       0xc0 ../libapp.a(main.c.obj)
 .debug_frame   0x00000000000003cc       0x20 libzephyr.a(isr_tables.c.obj)
 .debug_frame   0x00000000000003ec       0x2c libzephyr.a(soc.c.obj)
 .debug_frame   0x0000000000000418       0x30 libzephyr.a(irq_init.c.obj)
 .debug_frame   0x0000000000000448       0x38 libzephyr.a(fault.c.obj)
 .debug_frame   0x0000000000000480       0x8c libzephyr.a(irq_manage.c.obj)
 .debug_frame   0x000000000000050c       0x30 libzephyr.a(thread.c.obj)
 .debug_frame   0x000000000000053c       0x60 libzephyr.a(fatal.c.obj)
 .debug_frame   0x000000000000059c       0x28 libzephyr.a(sys_fatal_error_handler.c.obj)
 .debug_frame   0x00000000000005c4       0x2c libzephyr.a(thread_abort.c.obj)
 .debug_frame   0x00000000000005f0       0x38 libzephyr.a(prep_c.c.obj)
 .debug_frame   0x0000000000000628       0x28 libzephyr.a(nmi.c.obj)
 .debug_frame   0x0000000000000650      0x148 libzephyr.a(printk.c.obj)
 .debug_frame   0x0000000000000798       0x20 libzephyr.a(configs.c.obj)
 .debug_frame   0x00000000000007b8       0x5c libzephyr.a(uart_console.c.obj)
 .debug_frame   0x0000000000000814      0x150 libzephyr.a(mb_display.c.obj)
 .debug_frame   0x0000000000000964       0xa0 libzephyr.a(nrf5_power_clock.c.obj)
 .debug_frame   0x0000000000000a04      0x13c libzephyr.a(gpio_nrf5.c.obj)
 .debug_frame   0x0000000000000b40      0x11c libzephyr.a(i2c_bitbang.c.obj)
 .debug_frame   0x0000000000000c5c       0xa8 libzephyr.a(i2c_gpio.c.obj)
 .debug_frame   0x0000000000000d04       0xa8 libzephyr.a(i2c_nrf5.c.obj)
 .debug_frame   0x0000000000000dac       0x50 libzephyr.a(pwm_nrf5_sw.c.obj)
 .debug_frame   0x0000000000000dfc       0x78 libzephyr.a(temp_nrf5.c.obj)
 .debug_frame   0x0000000000000e74       0x60 libzephyr.a(uart_nrf5.c.obj)
 .debug_frame   0x0000000000000ed4       0xbc libzephyr.a(nrf_rtc_timer.c.obj)
 .debug_frame   0x0000000000000f90      0x3b4 subsys/bluetooth/host/libsubsys__bluetooth__host.a(hci_core.c.obj)
 .debug_frame   0x0000000000001344       0xf0 subsys/bluetooth/controller/libsubsys__bluetooth__controller.a(mem.c.obj)
 .debug_frame   0x0000000000001434       0x50 subsys/bluetooth/controller/libsubsys__bluetooth__controller.a(memq.c.obj)
 .debug_frame   0x0000000000001484       0x90 subsys/bluetooth/controller/libsubsys__bluetooth__controller.a(mayfly.c.obj)
 .debug_frame   0x0000000000001514       0x28 subsys/bluetooth/controller/libsubsys__bluetooth__controller.a(util.c.obj)
 .debug_frame   0x000000000000153c      0x1e4 subsys/bluetooth/controller/libsubsys__bluetooth__controller.a(ticker.c.obj)
 .debug_frame   0x0000000000001720       0x44 subsys/bluetooth/controller/libsubsys__bluetooth__controller.a(ll_addr.c.obj)
 .debug_frame   0x0000000000001764       0x30 subsys/bluetooth/controller/libsubsys__bluetooth__controller.a(ll_tx_pwr.c.obj)
 .debug_frame   0x0000000000001794       0x60 subsys/bluetooth/controller/libsubsys__bluetooth__controller.a(crypto.c.obj)
 .debug_frame   0x00000000000017f4       0x98 subsys/bluetooth/controller/libsubsys__bluetooth__controller.a(hci_driver.c.obj)
 .debug_frame   0x000000000000188c      0x180 subsys/bluetooth/controller/libsubsys__bluetooth__controller.a(hci.c.obj)
 .debug_frame   0x0000000000001a0c      0xb58 subsys/bluetooth/controller/libsubsys__bluetooth__controller.a(ctrl.c.obj)
 .debug_frame   0x0000000000002564       0xcc subsys/bluetooth/controller/libsubsys__bluetooth__controller.a(ll.c.obj)
 .debug_frame   0x0000000000002630       0xa8 subsys/bluetooth/controller/libsubsys__bluetooth__controller.a(ll_adv.c.obj)
 .debug_frame   0x00000000000026d8       0x9c subsys/bluetooth/controller/libsubsys__bluetooth__controller.a(ll_filter.c.obj)
 .debug_frame   0x0000000000002774       0x60 subsys/bluetooth/controller/libsubsys__bluetooth__controller.a(cntr.c.obj)
 .debug_frame   0x00000000000027d4       0xdc subsys/bluetooth/controller/libsubsys__bluetooth__controller.a(rand.c.obj)
 .debug_frame   0x00000000000028b0       0xd8 subsys/bluetooth/controller/libsubsys__bluetooth__controller.a(ecb.c.obj)
 .debug_frame   0x0000000000002988      0x4e4 subsys/bluetooth/controller/libsubsys__bluetooth__controller.a(radio.c.obj)
 .debug_frame   0x0000000000002e6c       0x60 subsys/bluetooth/controller/libsubsys__bluetooth__controller.a(mayfly.c.obj)
 .debug_frame   0x0000000000002ecc       0x50 subsys/bluetooth/controller/libsubsys__bluetooth__controller.a(ticker.c.obj)
 .debug_frame   0x0000000000002f1c      0x3e0 subsys/net/libsubsys__net.a(buf.c.obj)
 .debug_frame   0x00000000000032fc       0x68 kernel/libkernel.a(device.c.obj)
 .debug_frame   0x0000000000003364       0x20 kernel/libkernel.a(errno.c.obj)
 .debug_frame   0x0000000000003384       0x64 kernel/libkernel.a(idle.c.obj)
 .debug_frame   0x00000000000033e8       0x9c kernel/libkernel.a(init.c.obj)
 .debug_frame   0x0000000000003484       0xe8 kernel/libkernel.a(mempool.c.obj)
 .debug_frame   0x000000000000356c       0x78 kernel/libkernel.a(mutex.c.obj)
 .debug_frame   0x00000000000035e4       0xd0 kernel/libkernel.a(queue.c.obj)
 .debug_frame   0x00000000000036b4      0x1f4 kernel/libkernel.a(sched.c.obj)
 .debug_frame   0x00000000000038a8       0x7c kernel/libkernel.a(sem.c.obj)
 .debug_frame   0x0000000000003924       0xac kernel/libkernel.a(sys_clock.c.obj)
 .debug_frame   0x00000000000039d0       0x28 kernel/libkernel.a(system_work_q.c.obj)
 .debug_frame   0x00000000000039f8      0x214 kernel/libkernel.a(thread.c.obj)
 .debug_frame   0x0000000000003c0c       0xe0 kernel/libkernel.a(work_q.c.obj)
 .debug_frame   0x0000000000003cec      0x114 kernel/libkernel.a(timer.c.obj)
 .debug_frame   0x0000000000003e00       0xdc kernel/libkernel.a(atomic_c.c.obj)
 .debug_frame   0x0000000000003edc      0x108 kernel/libkernel.a(poll.c.obj)
 .debug_frame   0x0000000000003fe4       0x20 CMakeFiles/offsets.dir/arch/arm/core/offsets/offsets.c.obj
 .debug_frame   0x0000000000004004       0x20 /opt/zephyr-sdk/sysroots/armv5-zephyr-eabi/usr/lib/arm-zephyr-eabi/6.2.0/armv6-m/libgcc.a(_udivsi3.o)
 .debug_frame   0x0000000000004024       0x20 /opt/zephyr-sdk/sysroots/armv5-zephyr-eabi/usr/lib/arm-zephyr-eabi/6.2.0/armv6-m/libgcc.a(_divsi3.o)
 .debug_frame   0x0000000000004044       0x34 /opt/zephyr-sdk/sysroots/armv5-zephyr-eabi/usr/lib/arm-zephyr-eabi/6.2.0/armv6-m/libgcc.a(_muldi3.o)
 .debug_frame   0x0000000000004078       0x28 /opt/zephyr-sdk/sysroots/armv5-zephyr-eabi/usr/lib/arm-zephyr-eabi/6.2.0/armv6-m/libgcc.a(_ffssi2.o)
 .debug_frame   0x00000000000040a0       0x20 /opt/zephyr-sdk/sysroots/armv5-zephyr-eabi/usr/lib/arm-zephyr-eabi/6.2.0/armv6-m/libgcc.a(_popcountsi2.o)
 .debug_frame   0x00000000000040c0       0x2c /opt/zephyr-sdk/sysroots/armv5-zephyr-eabi/usr/lib/arm-zephyr-eabi/6.2.0/armv6-m/libgcc.a(_fixunsdfsi.o)
 .debug_frame   0x00000000000040ec       0x3c /opt/zephyr-sdk/sysroots/armv5-zephyr-eabi/usr/lib/arm-zephyr-eabi/6.2.0/armv6-m/libgcc.a(_udivmoddi4.o)
 .debug_frame   0x0000000000004128       0x3c /opt/zephyr-sdk/sysroots/armv5-zephyr-eabi/usr/lib/arm-zephyr-eabi/6.2.0/armv6-m/libgcc.a(adddf3.o)
 .debug_frame   0x0000000000004164       0x3c /opt/zephyr-sdk/sysroots/armv5-zephyr-eabi/usr/lib/arm-zephyr-eabi/6.2.0/armv6-m/libgcc.a(divdf3.o)
 .debug_frame   0x00000000000041a0       0x38 /opt/zephyr-sdk/sysroots/armv5-zephyr-eabi/usr/lib/arm-zephyr-eabi/6.2.0/armv6-m/libgcc.a(subdf3.o)
 .debug_frame   0x00000000000041d8       0x2c /opt/zephyr-sdk/sysroots/armv5-zephyr-eabi/usr/lib/arm-zephyr-eabi/6.2.0/armv6-m/libgcc.a(fixdfsi.o)
 .debug_frame   0x0000000000004204       0x2c /opt/zephyr-sdk/sysroots/armv5-zephyr-eabi/usr/lib/arm-zephyr-eabi/6.2.0/armv6-m/libgcc.a(floatsidf.o)
 .debug_frame   0x0000000000004230       0x38 /opt/zephyr-sdk/sysroots/armv5-zephyr-eabi/usr/lib/arm-zephyr-eabi/6.2.0/armv6-m/libgcc.a(eqdf2.o)
 .debug_frame   0x0000000000004268       0x38 /opt/zephyr-sdk/sysroots/armv5-zephyr-eabi/usr/lib/arm-zephyr-eabi/6.2.0/armv6-m/libgcc.a(gedf2.o)
 .debug_frame   0x00000000000042a0       0x38 /opt/zephyr-sdk/sysroots/armv5-zephyr-eabi/usr/lib/arm-zephyr-eabi/6.2.0/armv6-m/libgcc.a(ledf2.o)
